
making_sound_1.elf:     file format elf32-avr

Sections:
Idx Name          Size      VMA       LMA       File off  Algn
  0 .data         00000000  00800100  00800100  000076ca  2**0
                  CONTENTS, ALLOC, LOAD, DATA
  1 .text         00007656  00000000  00000000  00000074  2**1
                  CONTENTS, ALLOC, LOAD, READONLY, CODE
  2 .bss          00000004  00800100  00800100  000076ca  2**0
                  ALLOC
  3 .comment      00000030  00000000  00000000  000076ca  2**0
                  CONTENTS, READONLY
  4 .note.gnu.avr.deviceinfo 0000003c  00000000  00000000  000076fc  2**2
                  CONTENTS, READONLY
  5 .debug_aranges 00000058  00000000  00000000  00007738  2**0
                  CONTENTS, READONLY, DEBUGGING
  6 .debug_info   00000953  00000000  00000000  00007790  2**0
                  CONTENTS, READONLY, DEBUGGING
  7 .debug_abbrev 00000756  00000000  00000000  000080e3  2**0
                  CONTENTS, READONLY, DEBUGGING
  8 .debug_line   000003af  00000000  00000000  00008839  2**0
                  CONTENTS, READONLY, DEBUGGING
  9 .debug_frame  0000009c  00000000  00000000  00008be8  2**2
                  CONTENTS, READONLY, DEBUGGING
 10 .debug_str    000003ed  00000000  00000000  00008c84  2**0
                  CONTENTS, READONLY, DEBUGGING
 11 .debug_loc    00000185  00000000  00000000  00009071  2**0
                  CONTENTS, READONLY, DEBUGGING
 12 .debug_ranges 00000038  00000000  00000000  000091f6  2**0
                  CONTENTS, READONLY, DEBUGGING

Disassembly of section .text:

00000000 <__vectors>:
       0:	0c 94 3e 3a 	jmp	0x747c	; 0x747c <__ctors_end>
       4:	0c 94 50 3a 	jmp	0x74a0	; 0x74a0 <__bad_interrupt>
       8:	0c 94 50 3a 	jmp	0x74a0	; 0x74a0 <__bad_interrupt>
       c:	0c 94 50 3a 	jmp	0x74a0	; 0x74a0 <__bad_interrupt>
      10:	0c 94 50 3a 	jmp	0x74a0	; 0x74a0 <__bad_interrupt>
      14:	0c 94 50 3a 	jmp	0x74a0	; 0x74a0 <__bad_interrupt>
      18:	0c 94 50 3a 	jmp	0x74a0	; 0x74a0 <__bad_interrupt>
      1c:	0c 94 50 3a 	jmp	0x74a0	; 0x74a0 <__bad_interrupt>
      20:	0c 94 50 3a 	jmp	0x74a0	; 0x74a0 <__bad_interrupt>
      24:	0c 94 50 3a 	jmp	0x74a0	; 0x74a0 <__bad_interrupt>
      28:	0c 94 50 3a 	jmp	0x74a0	; 0x74a0 <__bad_interrupt>
      2c:	0c 94 50 3a 	jmp	0x74a0	; 0x74a0 <__bad_interrupt>
      30:	0c 94 50 3a 	jmp	0x74a0	; 0x74a0 <__bad_interrupt>
      34:	0c 94 50 3a 	jmp	0x74a0	; 0x74a0 <__bad_interrupt>
      38:	0c 94 50 3a 	jmp	0x74a0	; 0x74a0 <__bad_interrupt>
      3c:	0c 94 50 3a 	jmp	0x74a0	; 0x74a0 <__bad_interrupt>
      40:	0c 94 b6 3a 	jmp	0x756c	; 0x756c <__vector_16>
      44:	0c 94 50 3a 	jmp	0x74a0	; 0x74a0 <__bad_interrupt>
      48:	0c 94 50 3a 	jmp	0x74a0	; 0x74a0 <__bad_interrupt>
      4c:	0c 94 50 3a 	jmp	0x74a0	; 0x74a0 <__bad_interrupt>
      50:	0c 94 50 3a 	jmp	0x74a0	; 0x74a0 <__bad_interrupt>
      54:	0c 94 50 3a 	jmp	0x74a0	; 0x74a0 <__bad_interrupt>
      58:	0c 94 50 3a 	jmp	0x74a0	; 0x74a0 <__bad_interrupt>
      5c:	0c 94 50 3a 	jmp	0x74a0	; 0x74a0 <__bad_interrupt>
      60:	0c 94 50 3a 	jmp	0x74a0	; 0x74a0 <__bad_interrupt>
      64:	0c 94 50 3a 	jmp	0x74a0	; 0x74a0 <__bad_interrupt>

00000068 <__trampolines_end>:
      68:	7f 7f       	andi	r23, 0xFF	; 255
      6a:	7f 7f       	andi	r23, 0xFF	; 255
      6c:	7f 7f       	andi	r23, 0xFF	; 255
      6e:	7f 7f       	andi	r23, 0xFF	; 255
      70:	7f 80       	ldd	r7, Y+7	; 0x07
      72:	80 80       	ld	r8, Z
      74:	80 80       	ld	r8, Z
      76:	80 80       	ld	r8, Z
      78:	80 80       	ld	r8, Z
      7a:	80 80       	ld	r8, Z
      7c:	80 7f       	andi	r24, 0xF0	; 240
      7e:	7f 80       	ldd	r7, Y+7	; 0x07
      80:	80 80       	ld	r8, Z
      82:	80 80       	ld	r8, Z
      84:	80 80       	ld	r8, Z
      86:	80 80       	ld	r8, Z
      88:	80 80       	ld	r8, Z
      8a:	80 7f       	andi	r24, 0xF0	; 240
      8c:	7f 7f       	andi	r23, 0xFF	; 255
      8e:	7f 7f       	andi	r23, 0xFF	; 255
      90:	7f 7f       	andi	r23, 0xFF	; 255
      92:	7f 7f       	andi	r23, 0xFF	; 255
      94:	80 7f       	andi	r24, 0xF0	; 240
      96:	7f 80       	ldd	r7, Y+7	; 0x07
      98:	80 80       	ld	r8, Z
      9a:	80 80       	ld	r8, Z
      9c:	80 80       	ld	r8, Z
      9e:	80 80       	ld	r8, Z
      a0:	80 80       	ld	r8, Z
      a2:	80 80       	ld	r8, Z
      a4:	80 80       	ld	r8, Z
      a6:	80 7f       	andi	r24, 0xF0	; 240
      a8:	7f 7f       	andi	r23, 0xFF	; 255
      aa:	7f 7f       	andi	r23, 0xFF	; 255
      ac:	7f 7f       	andi	r23, 0xFF	; 255
      ae:	7f 80       	ldd	r7, Y+7	; 0x07
      b0:	80 80       	ld	r8, Z
      b2:	80 80       	ld	r8, Z
      b4:	80 80       	ld	r8, Z
      b6:	80 7f       	andi	r24, 0xF0	; 240
      b8:	80 80       	ld	r8, Z
      ba:	80 80       	ld	r8, Z
      bc:	80 80       	ld	r8, Z
      be:	80 7f       	andi	r24, 0xF0	; 240
      c0:	80 80       	ld	r8, Z
      c2:	80 80       	ld	r8, Z
      c4:	7f 7f       	andi	r23, 0xFF	; 255
      c6:	7f 7f       	andi	r23, 0xFF	; 255
      c8:	7f 7f       	andi	r23, 0xFF	; 255
      ca:	80 7f       	andi	r24, 0xF0	; 240
      cc:	80 80       	ld	r8, Z
      ce:	80 80       	ld	r8, Z
      d0:	80 80       	ld	r8, Z
      d2:	80 7f       	andi	r24, 0xF0	; 240
      d4:	7f 7f       	andi	r23, 0xFF	; 255
      d6:	7f 80       	ldd	r7, Y+7	; 0x07
      d8:	7f 7f       	andi	r23, 0xFF	; 255
      da:	7f 7f       	andi	r23, 0xFF	; 255
      dc:	80 80       	ld	r8, Z
      de:	80 80       	ld	r8, Z
      e0:	80 80       	ld	r8, Z
      e2:	80 80       	ld	r8, Z
      e4:	80 80       	ld	r8, Z
      e6:	80 80       	ld	r8, Z
      e8:	7f 7f       	andi	r23, 0xFF	; 255
      ea:	7f 7f       	andi	r23, 0xFF	; 255
      ec:	7f 7f       	andi	r23, 0xFF	; 255
      ee:	7f 7f       	andi	r23, 0xFF	; 255
      f0:	7f 7f       	andi	r23, 0xFF	; 255
      f2:	7f 7f       	andi	r23, 0xFF	; 255
      f4:	7f 7f       	andi	r23, 0xFF	; 255
      f6:	80 80       	ld	r8, Z
      f8:	80 80       	ld	r8, Z
      fa:	80 80       	ld	r8, Z
      fc:	80 80       	ld	r8, Z
      fe:	80 80       	ld	r8, Z
     100:	80 80       	ld	r8, Z
     102:	80 80       	ld	r8, Z
     104:	7f 7f       	andi	r23, 0xFF	; 255
     106:	7f 7f       	andi	r23, 0xFF	; 255
     108:	7f 7f       	andi	r23, 0xFF	; 255
     10a:	7f 7f       	andi	r23, 0xFF	; 255
     10c:	7f 7f       	andi	r23, 0xFF	; 255
     10e:	7f 7f       	andi	r23, 0xFF	; 255
     110:	80 80       	ld	r8, Z
     112:	7f 7f       	andi	r23, 0xFF	; 255
     114:	7f 7f       	andi	r23, 0xFF	; 255
     116:	7f 7f       	andi	r23, 0xFF	; 255
     118:	7f 7f       	andi	r23, 0xFF	; 255
     11a:	7f 7f       	andi	r23, 0xFF	; 255
     11c:	7f 7f       	andi	r23, 0xFF	; 255
     11e:	80 80       	ld	r8, Z
     120:	80 80       	ld	r8, Z
     122:	80 80       	ld	r8, Z
     124:	80 80       	ld	r8, Z
     126:	80 80       	ld	r8, Z
     128:	7f 7f       	andi	r23, 0xFF	; 255
     12a:	7f 7f       	andi	r23, 0xFF	; 255
     12c:	7f 7f       	andi	r23, 0xFF	; 255
     12e:	7f 7f       	andi	r23, 0xFF	; 255
     130:	7f 7f       	andi	r23, 0xFF	; 255
     132:	7f 7f       	andi	r23, 0xFF	; 255
     134:	7f 7f       	andi	r23, 0xFF	; 255
     136:	7f 7f       	andi	r23, 0xFF	; 255
     138:	80 80       	ld	r8, Z
     13a:	80 80       	ld	r8, Z
     13c:	80 80       	ld	r8, Z
     13e:	80 80       	ld	r8, Z
     140:	80 80       	ld	r8, Z
     142:	7f 80       	ldd	r7, Y+7	; 0x07
     144:	7f 7f       	andi	r23, 0xFF	; 255
     146:	7f 7f       	andi	r23, 0xFF	; 255
     148:	7f 7f       	andi	r23, 0xFF	; 255
     14a:	80 80       	ld	r8, Z
     14c:	80 80       	ld	r8, Z
     14e:	80 80       	ld	r8, Z
     150:	80 80       	ld	r8, Z
     152:	80 80       	ld	r8, Z
     154:	80 7f       	andi	r24, 0xF0	; 240
     156:	7f 7f       	andi	r23, 0xFF	; 255
     158:	7f 7f       	andi	r23, 0xFF	; 255
     15a:	7f 7f       	andi	r23, 0xFF	; 255
     15c:	7f 7f       	andi	r23, 0xFF	; 255
     15e:	7f 80       	ldd	r7, Y+7	; 0x07
     160:	80 80       	ld	r8, Z
     162:	80 80       	ld	r8, Z
     164:	80 80       	ld	r8, Z
     166:	80 80       	ld	r8, Z
     168:	80 7f       	andi	r24, 0xF0	; 240
     16a:	7f 7f       	andi	r23, 0xFF	; 255
     16c:	7f 7f       	andi	r23, 0xFF	; 255
     16e:	7f 7f       	andi	r23, 0xFF	; 255
     170:	80 80       	ld	r8, Z
     172:	80 80       	ld	r8, Z
     174:	80 80       	ld	r8, Z
     176:	80 80       	ld	r8, Z
     178:	80 7f       	andi	r24, 0xF0	; 240
     17a:	7f 7f       	andi	r23, 0xFF	; 255
     17c:	7f 7f       	andi	r23, 0xFF	; 255
     17e:	7f 7f       	andi	r23, 0xFF	; 255
     180:	7f 80       	ldd	r7, Y+7	; 0x07
     182:	80 80       	ld	r8, Z
     184:	80 80       	ld	r8, Z
     186:	80 80       	ld	r8, Z
     188:	80 80       	ld	r8, Z
     18a:	80 80       	ld	r8, Z
     18c:	7f 80       	ldd	r7, Y+7	; 0x07
     18e:	80 80       	ld	r8, Z
     190:	80 7f       	andi	r24, 0xF0	; 240
     192:	7f 7f       	andi	r23, 0xFF	; 255
     194:	7f 80       	ldd	r7, Y+7	; 0x07
     196:	80 80       	ld	r8, Z
     198:	80 80       	ld	r8, Z
     19a:	80 7f       	andi	r24, 0xF0	; 240
     19c:	7f 7f       	andi	r23, 0xFF	; 255
     19e:	7f 7f       	andi	r23, 0xFF	; 255
     1a0:	7f 7f       	andi	r23, 0xFF	; 255
     1a2:	7f 7f       	andi	r23, 0xFF	; 255
     1a4:	7f 7f       	andi	r23, 0xFF	; 255
     1a6:	80 80       	ld	r8, Z
     1a8:	80 80       	ld	r8, Z
     1aa:	80 80       	ld	r8, Z
     1ac:	80 80       	ld	r8, Z
     1ae:	80 7f       	andi	r24, 0xF0	; 240
     1b0:	7f 7f       	andi	r23, 0xFF	; 255
     1b2:	7f 7f       	andi	r23, 0xFF	; 255
     1b4:	7f 7f       	andi	r23, 0xFF	; 255
     1b6:	7f 80       	ldd	r7, Y+7	; 0x07
     1b8:	80 80       	ld	r8, Z
     1ba:	80 80       	ld	r8, Z
     1bc:	80 80       	ld	r8, Z
     1be:	80 80       	ld	r8, Z
     1c0:	80 7f       	andi	r24, 0xF0	; 240
     1c2:	7f 7f       	andi	r23, 0xFF	; 255
     1c4:	7f 7f       	andi	r23, 0xFF	; 255
     1c6:	7f 7f       	andi	r23, 0xFF	; 255
     1c8:	7f 7f       	andi	r23, 0xFF	; 255
     1ca:	7f 7f       	andi	r23, 0xFF	; 255
     1cc:	7f 7f       	andi	r23, 0xFF	; 255
     1ce:	80 80       	ld	r8, Z
     1d0:	80 80       	ld	r8, Z
     1d2:	80 80       	ld	r8, Z
     1d4:	80 80       	ld	r8, Z
     1d6:	7f 7f       	andi	r23, 0xFF	; 255
     1d8:	7f 7f       	andi	r23, 0xFF	; 255
     1da:	7f 7f       	andi	r23, 0xFF	; 255
     1dc:	7f 7f       	andi	r23, 0xFF	; 255
     1de:	7f 7f       	andi	r23, 0xFF	; 255
     1e0:	7f 7f       	andi	r23, 0xFF	; 255
     1e2:	80 80       	ld	r8, Z
     1e4:	80 80       	ld	r8, Z
     1e6:	80 80       	ld	r8, Z
     1e8:	80 80       	ld	r8, Z
     1ea:	80 80       	ld	r8, Z
     1ec:	80 80       	ld	r8, Z
     1ee:	7f 7f       	andi	r23, 0xFF	; 255
     1f0:	7f 7f       	andi	r23, 0xFF	; 255
     1f2:	80 80       	ld	r8, Z
     1f4:	80 80       	ld	r8, Z
     1f6:	80 7f       	andi	r24, 0xF0	; 240
     1f8:	80 80       	ld	r8, Z
     1fa:	7f 7f       	andi	r23, 0xFF	; 255
     1fc:	7f 7f       	andi	r23, 0xFF	; 255
     1fe:	7f 7f       	andi	r23, 0xFF	; 255
     200:	7f 7f       	andi	r23, 0xFF	; 255
     202:	7f 7f       	andi	r23, 0xFF	; 255
     204:	7f 7f       	andi	r23, 0xFF	; 255
     206:	7f 7f       	andi	r23, 0xFF	; 255
     208:	7f 7f       	andi	r23, 0xFF	; 255
     20a:	7f 80       	ldd	r7, Y+7	; 0x07
     20c:	80 80       	ld	r8, Z
     20e:	80 80       	ld	r8, Z
     210:	80 80       	ld	r8, Z
     212:	80 80       	ld	r8, Z
     214:	80 80       	ld	r8, Z
     216:	80 80       	ld	r8, Z
     218:	80 80       	ld	r8, Z
     21a:	80 7f       	andi	r24, 0xF0	; 240
     21c:	7f 7f       	andi	r23, 0xFF	; 255
     21e:	7f 7f       	andi	r23, 0xFF	; 255
     220:	7f 7f       	andi	r23, 0xFF	; 255
     222:	7f 7f       	andi	r23, 0xFF	; 255
     224:	7f 7f       	andi	r23, 0xFF	; 255
     226:	80 80       	ld	r8, Z
     228:	80 80       	ld	r8, Z
     22a:	80 80       	ld	r8, Z
     22c:	80 80       	ld	r8, Z
     22e:	80 7f       	andi	r24, 0xF0	; 240
     230:	7f 7f       	andi	r23, 0xFF	; 255
     232:	7f 7f       	andi	r23, 0xFF	; 255
     234:	7f 80       	ldd	r7, Y+7	; 0x07
     236:	80 80       	ld	r8, Z
     238:	80 80       	ld	r8, Z
     23a:	80 80       	ld	r8, Z
     23c:	80 7f       	andi	r24, 0xF0	; 240
     23e:	80 7f       	andi	r24, 0xF0	; 240
     240:	7f 7f       	andi	r23, 0xFF	; 255
     242:	7f 7f       	andi	r23, 0xFF	; 255
     244:	7f 7f       	andi	r23, 0xFF	; 255
     246:	7f 7f       	andi	r23, 0xFF	; 255
     248:	7f 7f       	andi	r23, 0xFF	; 255
     24a:	80 80       	ld	r8, Z
     24c:	80 80       	ld	r8, Z
     24e:	80 80       	ld	r8, Z
     250:	80 80       	ld	r8, Z
     252:	80 80       	ld	r8, Z
     254:	7f 7f       	andi	r23, 0xFF	; 255
     256:	7f 7f       	andi	r23, 0xFF	; 255
     258:	7f 80       	ldd	r7, Y+7	; 0x07
     25a:	80 80       	ld	r8, Z
     25c:	80 80       	ld	r8, Z
     25e:	80 7f       	andi	r24, 0xF0	; 240
     260:	80 80       	ld	r8, Z
     262:	7f 7f       	andi	r23, 0xFF	; 255
     264:	7f 7f       	andi	r23, 0xFF	; 255
     266:	7f 7f       	andi	r23, 0xFF	; 255
     268:	7f 7f       	andi	r23, 0xFF	; 255
     26a:	7f 7f       	andi	r23, 0xFF	; 255
     26c:	7f 7f       	andi	r23, 0xFF	; 255
     26e:	7f 80       	ldd	r7, Y+7	; 0x07
     270:	80 80       	ld	r8, Z
     272:	80 80       	ld	r8, Z
     274:	80 80       	ld	r8, Z
     276:	80 80       	ld	r8, Z
     278:	80 80       	ld	r8, Z
     27a:	80 7f       	andi	r24, 0xF0	; 240
     27c:	7f 7f       	andi	r23, 0xFF	; 255
     27e:	7f 7f       	andi	r23, 0xFF	; 255
     280:	7f 7e       	andi	r23, 0xEF	; 239
     282:	7e 7f       	andi	r23, 0xFE	; 254
     284:	80 80       	ld	r8, Z
     286:	80 80       	ld	r8, Z
     288:	80 7f       	andi	r24, 0xF0	; 240
     28a:	80 82       	st	Z, r8
     28c:	82 81       	ldd	r24, Z+2	; 0x02
     28e:	80 7e       	andi	r24, 0xE0	; 224
     290:	7e 7f       	andi	r23, 0xFE	; 254
     292:	80 82       	st	Z, r8
     294:	83 84       	ldd	r8, Z+11	; 0x0b
     296:	81 7f       	andi	r24, 0xF1	; 241
     298:	7e 7d       	andi	r23, 0xDE	; 222
     29a:	7c 7d       	andi	r23, 0xDC	; 220
     29c:	7f 80       	ldd	r7, Y+7	; 0x07
     29e:	7f 7e       	andi	r23, 0xEF	; 239
     2a0:	7d 7c       	andi	r23, 0xCD	; 205
     2a2:	7c 7e       	andi	r23, 0xEC	; 236
     2a4:	7f 81       	ldd	r23, Y+7	; 0x07
     2a6:	80 7f       	andi	r24, 0xF0	; 240
     2a8:	7e 7d       	andi	r23, 0xDE	; 222
     2aa:	7e 80       	ldd	r7, Y+6	; 0x06
     2ac:	82 82       	std	Z+2, r8	; 0x02
     2ae:	82 82       	std	Z+2, r8	; 0x02
     2b0:	80 7f       	andi	r24, 0xF0	; 240
     2b2:	80 82       	st	Z, r8
     2b4:	83 83       	std	Z+3, r24	; 0x03
     2b6:	83 82       	std	Z+3, r8	; 0x03
     2b8:	80 7d       	andi	r24, 0xD0	; 208
     2ba:	7b 7c       	andi	r23, 0xCB	; 203
     2bc:	7e 80       	ldd	r7, Y+6	; 0x06
     2be:	80 7f       	andi	r24, 0xF0	; 240
     2c0:	7d 7b       	andi	r23, 0xBD	; 189
     2c2:	7a 7a       	andi	r23, 0xAA	; 170
     2c4:	7d 80       	ldd	r7, Y+5	; 0x05
     2c6:	83 83       	std	Z+3, r24	; 0x03
     2c8:	81 7f       	andi	r24, 0xF1	; 241
     2ca:	7e 7d       	andi	r23, 0xDE	; 222
     2cc:	7e 80       	ldd	r7, Y+6	; 0x06
     2ce:	83 84       	ldd	r8, Z+11	; 0x0b
     2d0:	84 82       	std	Z+4, r8	; 0x04
     2d2:	80 80       	ld	r8, Z
     2d4:	7f 81       	ldd	r23, Y+7	; 0x07
     2d6:	82 84       	ldd	r8, Z+10	; 0x0a
     2d8:	83 81       	ldd	r24, Z+3	; 0x03
     2da:	7f 7c       	andi	r23, 0xCF	; 207
     2dc:	7b 7b       	andi	r23, 0xBB	; 187
     2de:	7c 7e       	andi	r23, 0xEC	; 236
     2e0:	7e 7e       	andi	r23, 0xEE	; 238
     2e2:	7d 7c       	andi	r23, 0xCD	; 205
     2e4:	7b 7d       	andi	r23, 0xDB	; 219
     2e6:	7f 81       	ldd	r23, Y+7	; 0x07
     2e8:	81 80       	ldd	r8, Z+1	; 0x01
     2ea:	7f 7e       	andi	r23, 0xEF	; 239
     2ec:	7d 7e       	andi	r23, 0xED	; 237
     2ee:	81 83       	std	Z+1, r24	; 0x01
     2f0:	84 85       	ldd	r24, Z+12	; 0x0c
     2f2:	83 82       	std	Z+3, r8	; 0x03
     2f4:	85 84       	ldd	r8, Z+13	; 0x0d
     2f6:	82 82       	std	Z+2, r8	; 0x02
     2f8:	80 80       	ld	r8, Z
     2fa:	80 7e       	andi	r24, 0xE0	; 224
     2fc:	80 80       	ld	r8, Z
     2fe:	82 80       	ldd	r8, Z+2	; 0x02
     300:	7d 7c       	andi	r23, 0xCD	; 205
     302:	7d 7c       	andi	r23, 0xCD	; 205
     304:	7a 7c       	andi	r23, 0xCA	; 202
     306:	7e 7f       	andi	r23, 0xFE	; 254
     308:	7f 7f       	andi	r23, 0xFF	; 255
     30a:	80 81       	ld	r24, Z
     30c:	83 85       	ldd	r24, Z+11	; 0x0b
     30e:	85 84       	ldd	r8, Z+13	; 0x0d
     310:	81 80       	ldd	r8, Z+1	; 0x01
     312:	7f 7e       	andi	r23, 0xEF	; 239
     314:	7f 80       	ldd	r7, Y+7	; 0x07
     316:	7d 7a       	andi	r23, 0xAD	; 173
     318:	7a 7a       	andi	r23, 0xAA	; 170
     31a:	7b 7f       	andi	r23, 0xFB	; 251
     31c:	81 82       	std	Z+1, r8	; 0x01
     31e:	80 7d       	andi	r24, 0xD0	; 208
     320:	78 76       	andi	r23, 0x68	; 104
     322:	76 78       	andi	r23, 0x86	; 134
     324:	7b 7f       	andi	r23, 0xFB	; 251
     326:	82 83       	std	Z+2, r24	; 0x02
     328:	82 81       	ldd	r24, Z+2	; 0x02
     32a:	80 82       	st	Z, r8
     32c:	84 86       	std	Z+12, r8	; 0x0c
     32e:	88 87       	std	Y+8, r24	; 0x08
     330:	86 83       	std	Z+6, r24	; 0x06
     332:	81 81       	ldd	r24, Z+1	; 0x01
     334:	82 83       	std	Z+2, r24	; 0x02
     336:	83 82       	std	Z+3, r8	; 0x03
     338:	81 7f       	andi	r24, 0xF1	; 241
     33a:	7d 7c       	andi	r23, 0xCD	; 205
     33c:	7d 7d       	andi	r23, 0xDD	; 221
     33e:	7d 7c       	andi	r23, 0xCD	; 205
     340:	7b 7a       	andi	r23, 0xAB	; 171
     342:	79 78       	andi	r23, 0x89	; 137
     344:	7a 7c       	andi	r23, 0xCA	; 202
     346:	7f 80       	ldd	r7, Y+7	; 0x07
     348:	81 81       	ldd	r24, Z+1	; 0x01
     34a:	80 80       	ld	r8, Z
     34c:	82 83       	std	Z+2, r24	; 0x02
     34e:	86 87       	std	Z+14, r24	; 0x0e
     350:	87 85       	ldd	r24, Z+15	; 0x0f
     352:	83 81       	ldd	r24, Z+3	; 0x03
     354:	81 82       	std	Z+1, r8	; 0x01
     356:	81 80       	ldd	r8, Z+1	; 0x01
     358:	80 80       	ld	r8, Z
     35a:	7e 7c       	andi	r23, 0xCE	; 206
     35c:	7c 7b       	andi	r23, 0xBC	; 188
     35e:	79 7a       	andi	r23, 0xA9	; 169
     360:	7b 7d       	andi	r23, 0xDB	; 219
     362:	7e 7c       	andi	r23, 0xCE	; 206
     364:	7b 7a       	andi	r23, 0xAB	; 171
     366:	79 7a       	andi	r23, 0xA9	; 169
     368:	7c 80       	ldd	r7, Y+4	; 0x04
     36a:	83 84       	ldd	r8, Z+11	; 0x0b
     36c:	85 85       	ldd	r24, Z+13	; 0x0d
     36e:	85 84       	ldd	r8, Z+13	; 0x0d
     370:	84 85       	ldd	r24, Z+12	; 0x0c
     372:	85 84       	ldd	r8, Z+13	; 0x0d
     374:	81 80       	ldd	r8, Z+1	; 0x01
     376:	7d 7c       	andi	r23, 0xCD	; 205
     378:	7d 81       	ldd	r23, Y+5	; 0x05
     37a:	84 82       	std	Z+4, r8	; 0x04
     37c:	81 7f       	andi	r24, 0xF1	; 241
     37e:	7b 7b       	andi	r23, 0xBB	; 187
     380:	7f 7f       	andi	r23, 0xFF	; 255
     382:	7e 7d       	andi	r23, 0xDE	; 222
     384:	79 78       	andi	r23, 0x89	; 137
     386:	78 7a       	andi	r23, 0xA8	; 168
     388:	7f 82       	std	Y+7, r7	; 0x07
     38a:	86 83       	std	Z+6, r24	; 0x06
     38c:	80 7e       	andi	r24, 0xE0	; 224
     38e:	7c 79       	andi	r23, 0x9C	; 156
     390:	78 7d       	andi	r23, 0xD8	; 216
     392:	80 88       	ldd	r8, Z+16	; 0x10
     394:	86 83       	std	Z+6, r24	; 0x06
     396:	81 7d       	andi	r24, 0xD1	; 209
     398:	7e 81       	ldd	r23, Y+6	; 0x06
     39a:	86 87       	std	Z+14, r24	; 0x0e
     39c:	80 7b       	andi	r24, 0xB0	; 176
     39e:	79 7a       	andi	r23, 0xA9	; 169
     3a0:	80 89       	ldd	r24, Z+16	; 0x10
     3a2:	8e 90       	ld	r8, -X
     3a4:	8e 83       	std	Y+6, r24	; 0x06
     3a6:	79 76       	andi	r23, 0x69	; 105
     3a8:	79 7a       	andi	r23, 0xA9	; 169
     3aa:	80 87       	std	Z+8, r24	; 0x08
     3ac:	88 84       	ldd	r8, Y+8	; 0x08
     3ae:	7d 79       	andi	r23, 0x9D	; 157
     3b0:	77 7a       	andi	r23, 0xA7	; 167
     3b2:	7e 82       	std	Y+6, r7	; 0x06
     3b4:	83 7e       	andi	r24, 0xE3	; 227
     3b6:	7a 76       	andi	r23, 0x6A	; 106
     3b8:	74 76       	andi	r23, 0x64	; 100
     3ba:	7c 80       	ldd	r7, Y+4	; 0x04
     3bc:	81 80       	ldd	r8, Z+1	; 0x01
     3be:	7e 7b       	andi	r23, 0xBE	; 190
     3c0:	7c 81       	ldd	r23, Y+4	; 0x04
     3c2:	84 86       	std	Z+12, r8	; 0x0c
     3c4:	88 88       	ldd	r8, Y+16	; 0x10
     3c6:	84 80       	ldd	r8, Z+4	; 0x04
     3c8:	7f 7f       	andi	r23, 0xFF	; 255
     3ca:	81 82       	std	Z+1, r8	; 0x01
     3cc:	84 85       	ldd	r24, Z+12	; 0x0c
     3ce:	82 7f       	andi	r24, 0xF2	; 242
     3d0:	7b 7b       	andi	r23, 0xBB	; 187
     3d2:	7c 7e       	andi	r23, 0xEC	; 236
     3d4:	81 82       	std	Z+1, r8	; 0x01
     3d6:	80 7b       	andi	r24, 0xB0	; 176
     3d8:	78 76       	andi	r23, 0x68	; 104
     3da:	77 7a       	andi	r23, 0xA7	; 167
     3dc:	7d 80       	ldd	r7, Y+5	; 0x05
     3de:	80 7e       	andi	r24, 0xE0	; 224
     3e0:	7a 7a       	andi	r23, 0xAA	; 170
     3e2:	7c 7f       	andi	r23, 0xFC	; 252
     3e4:	83 87       	std	Z+11, r24	; 0x0b
     3e6:	8a 89       	ldd	r24, Y+18	; 0x12
     3e8:	85 84       	ldd	r8, Z+13	; 0x0d
     3ea:	85 83       	std	Z+5, r24	; 0x05
     3ec:	82 82       	std	Z+2, r8	; 0x02
     3ee:	81 82       	std	Z+1, r8	; 0x01
     3f0:	80 81       	ld	r24, Z
     3f2:	81 83       	std	Z+1, r24	; 0x01
     3f4:	85 82       	std	Z+5, r8	; 0x05
     3f6:	7f 7c       	andi	r23, 0xCF	; 207
     3f8:	79 74       	andi	r23, 0x49	; 73
     3fa:	75 75       	andi	r23, 0x55	; 85
     3fc:	79 7d       	andi	r23, 0xD9	; 217
     3fe:	7d 7f       	andi	r23, 0xFD	; 253
     400:	7f 81       	ldd	r23, Y+7	; 0x07
     402:	85 88       	ldd	r8, Z+21	; 0x15
     404:	89 84       	ldd	r8, Y+9	; 0x09
     406:	80 80       	ld	r8, Z
     408:	7e 7e       	andi	r23, 0xEE	; 238
     40a:	82 83       	std	Z+2, r24	; 0x02
     40c:	7f 7d       	andi	r23, 0xDF	; 223
     40e:	7d 7c       	andi	r23, 0xCD	; 205
     410:	7e 81       	ldd	r23, Y+6	; 0x06
     412:	84 84       	ldd	r8, Z+12	; 0x0c
     414:	84 83       	std	Z+4, r24	; 0x04
     416:	84 7f       	andi	r24, 0xF4	; 244
     418:	7b 79       	andi	r23, 0x9B	; 155
     41a:	77 7e       	andi	r23, 0xE7	; 231
     41c:	81 85       	ldd	r24, Z+9	; 0x09
     41e:	87 86       	std	Z+15, r8	; 0x0f
     420:	87 82       	std	Z+7, r8	; 0x07
     422:	7f 81       	ldd	r23, Y+7	; 0x07
     424:	81 7c       	andi	r24, 0xC1	; 193
     426:	78 7c       	andi	r23, 0xC8	; 200
     428:	7f 7f       	andi	r23, 0xFF	; 255
     42a:	81 80       	ldd	r8, Z+1	; 0x01
     42c:	7d 77       	andi	r23, 0x7D	; 125
     42e:	76 75       	andi	r23, 0x56	; 86
     430:	73 75       	andi	r23, 0x53	; 83
     432:	78 7b       	andi	r23, 0xB8	; 184
     434:	7c 7f       	andi	r23, 0xFC	; 252
     436:	80 7f       	andi	r24, 0xF0	; 240
     438:	7c 7b       	andi	r23, 0xBC	; 188
     43a:	7e 80       	ldd	r7, Y+6	; 0x06
     43c:	83 86       	std	Z+11, r8	; 0x0b
     43e:	87 83       	std	Z+7, r24	; 0x07
     440:	80 81       	ld	r24, Z
     442:	83 84       	ldd	r8, Z+11	; 0x0b
     444:	87 8e       	std	Z+31, r8	; 0x1f
     446:	90 8d       	ldd	r25, Z+24	; 0x18
     448:	8e 89       	ldd	r24, Y+22	; 0x16
     44a:	8b 89       	ldd	r24, Y+19	; 0x13
     44c:	7d 7a       	andi	r23, 0xAD	; 173
     44e:	71 77       	andi	r23, 0x71	; 113
     450:	79 79       	andi	r23, 0x99	; 153
     452:	81 82       	std	Z+1, r8	; 0x01
     454:	7f 76       	andi	r23, 0x6F	; 111
     456:	77 79       	andi	r23, 0x97	; 151
     458:	77 77       	andi	r23, 0x77	; 119
     45a:	78 7e       	andi	r23, 0xE8	; 232
     45c:	7d 7b       	andi	r23, 0xBD	; 189
     45e:	7f 7f       	andi	r23, 0xFF	; 255
     460:	81 81       	ldd	r24, Z+1	; 0x01
     462:	89 8c       	ldd	r8, Y+25	; 0x19
     464:	8b 8b       	std	Y+19, r24	; 0x13
     466:	84 82       	std	Z+4, r8	; 0x04
     468:	81 84       	ldd	r8, Z+9	; 0x09
     46a:	86 86       	std	Z+14, r8	; 0x0e
     46c:	85 82       	std	Z+5, r8	; 0x05
     46e:	7e 7c       	andi	r23, 0xCE	; 206
     470:	7d 7f       	andi	r23, 0xFD	; 253
     472:	7e 7b       	andi	r23, 0xBE	; 190
     474:	75 6d       	ori	r23, 0xD5	; 213
     476:	69 6c       	ori	r22, 0xC9	; 201
     478:	72 7b       	andi	r23, 0xB2	; 178
     47a:	81 83       	std	Z+1, r24	; 0x01
     47c:	83 7c       	andi	r24, 0xC3	; 195
     47e:	77 74       	andi	r23, 0x47	; 71
     480:	78 80       	ld	r7, Y
     482:	85 88       	ldd	r8, Z+21	; 0x15
     484:	8a 8d       	ldd	r24, Y+26	; 0x1a
     486:	89 85       	ldd	r24, Y+9	; 0x09
     488:	8c 91       	ld	r24, X
     48a:	92 8e       	std	Z+26, r9	; 0x1a
     48c:	89 84       	ldd	r8, Y+9	; 0x09
     48e:	7f 7b       	andi	r23, 0xBF	; 191
     490:	79 79       	andi	r23, 0x99	; 153
     492:	79 7c       	andi	r23, 0xC9	; 201
     494:	7c 7a       	andi	r23, 0xAC	; 172
     496:	7e 84       	ldd	r7, Y+14	; 0x0e
     498:	85 83       	std	Z+5, r24	; 0x05
     49a:	7f 7a       	andi	r23, 0xAF	; 175
     49c:	76 73       	andi	r23, 0x36	; 54
     49e:	6f 71       	andi	r22, 0x1F	; 31
     4a0:	7a 7d       	andi	r23, 0xDA	; 218
     4a2:	7e 80       	ldd	r7, Y+6	; 0x06
     4a4:	84 83       	std	Z+4, r24	; 0x04
     4a6:	81 80       	ldd	r8, Z+1	; 0x01
     4a8:	7e 7f       	andi	r23, 0xFE	; 254
     4aa:	7e 7d       	andi	r23, 0xDE	; 222
     4ac:	7b 7a       	andi	r23, 0xAB	; 171
     4ae:	7e 82       	std	Y+6, r7	; 0x06
     4b0:	83 83       	std	Z+3, r24	; 0x03
     4b2:	85 85       	ldd	r24, Z+13	; 0x0d
     4b4:	85 80       	ldd	r8, Z+5	; 0x05
     4b6:	82 85       	ldd	r24, Z+10	; 0x0a
     4b8:	85 89       	ldd	r24, Z+21	; 0x15
     4ba:	88 8a       	std	Y+16, r8	; 0x10
     4bc:	8b 88       	ldd	r8, Y+19	; 0x13
     4be:	84 81       	ldd	r24, Z+4	; 0x04
     4c0:	80 7e       	andi	r24, 0xE0	; 224
     4c2:	7f 7f       	andi	r23, 0xFF	; 255
     4c4:	81 85       	ldd	r24, Z+9	; 0x09
     4c6:	84 81       	ldd	r24, Z+4	; 0x04
     4c8:	7c 78       	andi	r23, 0x8C	; 140
     4ca:	77 76       	andi	r23, 0x67	; 103
     4cc:	78 7a       	andi	r23, 0xA8	; 168
     4ce:	7a 7e       	andi	r23, 0xEA	; 234
     4d0:	7f 75       	andi	r23, 0x5F	; 95
     4d2:	73 79       	andi	r23, 0x93	; 147
     4d4:	77 7b       	andi	r23, 0xB7	; 183
     4d6:	80 81       	ld	r24, Z
     4d8:	83 80       	ldd	r8, Z+3	; 0x03
     4da:	82 86       	std	Z+10, r8	; 0x0a
     4dc:	84 88       	ldd	r8, Z+20	; 0x14
     4de:	8c 84       	ldd	r8, Y+12	; 0x0c
     4e0:	7d 7a       	andi	r23, 0xAD	; 173
     4e2:	74 76       	andi	r23, 0x64	; 100
     4e4:	7e 85       	ldd	r23, Y+14	; 0x0e
     4e6:	90 93 8d 86 	sts	0x868D, r25	; 0x80868d <__bss_end+0x8589>
     4ea:	7a 76       	andi	r23, 0x6A	; 106
     4ec:	73 7b       	andi	r23, 0xB3	; 179
     4ee:	7d 7e       	andi	r23, 0xED	; 237
     4f0:	82 7d       	andi	r24, 0xD2	; 210
     4f2:	76 72       	andi	r23, 0x26	; 38
     4f4:	7a 7f       	andi	r23, 0xFA	; 250
     4f6:	80 8b       	std	Z+16, r24	; 0x10
     4f8:	8e 8a       	std	Y+22, r8	; 0x16
     4fa:	84 77       	andi	r24, 0x74	; 116
     4fc:	76 73       	andi	r23, 0x36	; 54
     4fe:	77 81       	ldd	r23, Z+7	; 0x07
     500:	80 83       	st	Z, r24
     502:	80 77       	andi	r24, 0x70	; 112
     504:	6c 6f       	ori	r22, 0xFC	; 252
     506:	7c 83       	std	Y+4, r23	; 0x04
     508:	86 88       	ldd	r8, Z+22	; 0x16
     50a:	88 82       	st	Y, r8
     50c:	78 78       	andi	r23, 0x88	; 136
     50e:	7a 82       	std	Y+2, r7	; 0x02
     510:	84 87       	std	Z+12, r24	; 0x0c
     512:	88 7f       	andi	r24, 0xF8	; 248
     514:	7f 7a       	andi	r23, 0xAF	; 175
     516:	7c 83       	std	Y+4, r23	; 0x04
     518:	8f 94 91 8a 	call	0x231522	; 0x231522 <__TEXT_REGION_LENGTH__+0x229522>
     51c:	7c 77       	andi	r23, 0x7C	; 124
     51e:	74 78       	andi	r23, 0x84	; 132
     520:	7f 86       	std	Y+15, r7	; 0x0f
     522:	87 7f       	andi	r24, 0xF7	; 247
     524:	78 6e       	ori	r23, 0xE8	; 232
     526:	6c 75       	andi	r22, 0x5C	; 92
     528:	7b 81       	ldd	r23, Y+3	; 0x03
     52a:	89 8d       	ldd	r24, Y+25	; 0x19
     52c:	87 80       	ldd	r8, Z+7	; 0x07
     52e:	7f 81       	ldd	r23, Y+7	; 0x07
     530:	84 86       	std	Z+12, r8	; 0x0c
     532:	8a 88       	ldd	r8, Y+18	; 0x12
     534:	88 84       	ldd	r8, Y+8	; 0x08
     536:	81 7e       	andi	r24, 0xE1	; 225
     538:	80 91 91 89 	lds	r24, 0x8991	; 0x808991 <__bss_end+0x888d>
     53c:	86 7e       	andi	r24, 0xE6	; 230
     53e:	70 6f       	ori	r23, 0xF0	; 240
     540:	6d 78       	andi	r22, 0x8D	; 141
     542:	7f 7c       	andi	r23, 0xCF	; 207
     544:	77 6b       	ori	r23, 0xB7	; 183
     546:	6b 71       	andi	r22, 0x1B	; 27
     548:	76 7d       	andi	r23, 0xD6	; 214
     54a:	88 89       	ldd	r24, Y+16	; 0x10
     54c:	84 80       	ldd	r8, Z+4	; 0x04
     54e:	78 79       	andi	r23, 0x98	; 152
     550:	80 84       	ldd	r8, Z+8	; 0x08
     552:	8d 8e       	std	Y+29, r8	; 0x1d
     554:	8e 89       	ldd	r24, Y+22	; 0x16
     556:	87 84       	ldd	r8, Z+15	; 0x0f
     558:	7c 86       	std	Y+12, r7	; 0x0c
     55a:	8a 80       	ldd	r8, Y+2	; 0x02
     55c:	78 7b       	andi	r23, 0xB8	; 184
     55e:	7d 7d       	andi	r23, 0xDD	; 221
     560:	7e 7c       	andi	r23, 0xCE	; 206
     562:	77 7c       	andi	r23, 0xC7	; 199
     564:	7b 6d       	ori	r23, 0xDB	; 219
     566:	70 7f       	andi	r23, 0xF0	; 240
     568:	83 7b       	andi	r24, 0xB3	; 179
     56a:	80 82       	st	Z, r8
     56c:	86 85       	ldd	r24, Z+14	; 0x0e
     56e:	7f 83       	std	Y+7, r23	; 0x07
     570:	87 8c       	ldd	r8, Z+31	; 0x1f
     572:	82 81       	ldd	r24, Z+2	; 0x02
     574:	8b 83       	std	Y+3, r24	; 0x03
     576:	78 73       	andi	r23, 0x38	; 56
     578:	75 72       	andi	r23, 0x25	; 37
     57a:	73 7a       	andi	r23, 0xA3	; 163
     57c:	7c 82       	std	Y+4, r7	; 0x04
     57e:	82 85       	ldd	r24, Z+10	; 0x0a
     580:	81 7d       	andi	r24, 0xD1	; 209
     582:	80 7e       	andi	r24, 0xE0	; 224
     584:	80 7a       	andi	r24, 0xA0	; 160
     586:	7e 7f       	andi	r23, 0xFE	; 254
     588:	7b 83       	std	Y+3, r23	; 0x03
     58a:	8d 97       	sbiw	r24, 0x2d	; 45
     58c:	9b 9e       	mul	r9, r27
     58e:	98 9a       	sbi	0x13, 0	; 19
     590:	95 81       	ldd	r25, Z+5	; 0x05
     592:	7d 75       	andi	r23, 0x5D	; 93
     594:	78 7b       	andi	r23, 0xB8	; 184
     596:	7c 82       	std	Y+4, r7	; 0x04
     598:	81 7a       	andi	r24, 0xA1	; 161
     59a:	6e 6d       	ori	r22, 0xDE	; 222
     59c:	73 72       	andi	r23, 0x23	; 35
     59e:	74 76       	andi	r23, 0x64	; 100
     5a0:	75 6f       	ori	r23, 0xF5	; 245
     5a2:	68 6b       	ori	r22, 0xB8	; 184
     5a4:	70 76       	andi	r23, 0x60	; 96
     5a6:	7c 86       	std	Y+12, r7	; 0x0c
     5a8:	8a 8b       	std	Y+18, r24	; 0x12
     5aa:	8f 8c       	ldd	r8, Y+31	; 0x1f
     5ac:	8e 8e       	std	Y+30, r8	; 0x1e
     5ae:	93 91       	.word	0x9193	; ????
     5b0:	8a 85       	ldd	r24, Y+10	; 0x0a
     5b2:	81 7d       	andi	r24, 0xD1	; 209
     5b4:	7e 86       	std	Y+14, r7	; 0x0e
     5b6:	89 89       	ldd	r24, Y+17	; 0x11
     5b8:	82 74       	andi	r24, 0x42	; 66
     5ba:	67 5d       	subi	r22, 0xD7	; 215
     5bc:	5f 64       	ori	r21, 0x4F	; 79
     5be:	6e 75       	andi	r22, 0x5E	; 94
     5c0:	75 78       	andi	r23, 0x85	; 133
     5c2:	75 70       	andi	r23, 0x05	; 5
     5c4:	6f 78       	andi	r22, 0x8F	; 143
     5c6:	81 86       	std	Z+9, r8	; 0x09
     5c8:	90 94       	com	r9
     5ca:	99 98       	cbi	0x13, 1	; 19
     5cc:	86 87       	std	Z+14, r24	; 0x0e
     5ce:	8a 8d       	ldd	r24, Y+26	; 0x1a
     5d0:	a1 a7       	std	Z+41, r26	; 0x29
     5d2:	a0 a1       	ldd	r26, Z+32	; 0x20
     5d4:	92 78       	andi	r25, 0x82	; 130
     5d6:	71 6a       	ori	r23, 0xA1	; 161
     5d8:	6e 76       	andi	r22, 0x6E	; 110
     5da:	79 7d       	andi	r23, 0xD9	; 217
     5dc:	7d 7a       	andi	r23, 0xAD	; 173
     5de:	71 66       	ori	r23, 0x61	; 97
     5e0:	62 63       	ori	r22, 0x32	; 50
     5e2:	6a 6f       	ori	r22, 0xFA	; 250
     5e4:	71 7a       	andi	r23, 0xA1	; 161
     5e6:	83 88       	ldd	r8, Z+19	; 0x13
     5e8:	8a 92       	st	-Y, r8
     5ea:	92 91       	ld	r25, -Z
     5ec:	92 8f       	std	Z+26, r25	; 0x1a
     5ee:	8c 82       	std	Y+4, r8	; 0x04
     5f0:	86 8c       	ldd	r8, Z+30	; 0x1e
     5f2:	92 97       	sbiw	r26, 0x22	; 34
     5f4:	95 91       	lpm	r25, Z+
     5f6:	7f 6e       	ori	r23, 0xEF	; 239
     5f8:	61 66       	ori	r22, 0x61	; 97
     5fa:	6c 76       	andi	r22, 0x6C	; 108
     5fc:	81 7b       	andi	r24, 0xB1	; 177
     5fe:	7b 6c       	ori	r23, 0xCB	; 203
     600:	5f 62       	ori	r21, 0x2F	; 47
     602:	6b 77       	andi	r22, 0x7B	; 123
     604:	7f 89       	ldd	r23, Y+23	; 0x17
     606:	87 7f       	andi	r24, 0xF7	; 247
     608:	76 6f       	ori	r23, 0xF6	; 246
     60a:	7b 8b       	std	Y+19, r23	; 0x13
     60c:	9e a6       	std	Y+46, r9	; 0x2e
     60e:	a3 a2       	std	Z+35, r10	; 0x23
     610:	98 8b       	std	Y+16, r25	; 0x10
     612:	86 8d       	ldd	r24, Z+30	; 0x1e
     614:	93 94       	inc	r9
     616:	8a 80       	ldd	r8, Y+2	; 0x02
     618:	78 6e       	ori	r23, 0xE8	; 232
     61a:	65 5d       	subi	r22, 0xD5	; 213
     61c:	67 75       	andi	r22, 0x57	; 87
     61e:	76 75       	andi	r23, 0x56	; 86
     620:	74 70       	andi	r23, 0x04	; 4
     622:	69 66       	ori	r22, 0x69	; 105
     624:	67 73       	andi	r22, 0x37	; 55
     626:	80 80       	ld	r8, Z
     628:	7a 72       	andi	r23, 0x2A	; 42
     62a:	70 73       	andi	r23, 0x30	; 48
     62c:	7b 89       	ldd	r23, Y+19	; 0x13
     62e:	98 a7       	std	Y+40, r25	; 0x28
     630:	a5 9a       	sbi	0x14, 5	; 20
     632:	8e 86       	std	Y+14, r8	; 0x0e
     634:	91 93       	st	Z+, r25
     636:	91 91       	ld	r25, Z+
     638:	8f 85       	ldd	r24, Y+15	; 0x0f
     63a:	6d 6b       	ori	r22, 0xBD	; 189
     63c:	76 81       	ldd	r23, Z+6	; 0x06
     63e:	8b 8d       	ldd	r24, Y+27	; 0x1b
     640:	89 79       	andi	r24, 0x99	; 153
     642:	6e 64       	ori	r22, 0x4E	; 78
     644:	63 72       	andi	r22, 0x23	; 35
     646:	80 8e       	std	Z+24, r8	; 0x18
     648:	91 88       	ldd	r9, Z+17	; 0x11
     64a:	7f 7c       	andi	r23, 0xCF	; 207
     64c:	80 81       	ld	r24, Z
     64e:	8c 96       	adiw	r24, 0x2c	; 44
     650:	95 8e       	std	Z+29, r9	; 0x1d
     652:	82 74       	andi	r24, 0x42	; 66
     654:	6d 6d       	ori	r22, 0xDD	; 221
     656:	6a 70       	andi	r22, 0x0A	; 10
     658:	7c 81       	ldd	r23, Y+4	; 0x04
     65a:	80 80       	ld	r8, Z
     65c:	7c 70       	andi	r23, 0x0C	; 12
     65e:	6e 75       	andi	r22, 0x5E	; 94
     660:	7e 82       	std	Y+6, r7	; 0x06
     662:	7c 74       	andi	r23, 0x4C	; 76
     664:	6c 6c       	ori	r22, 0xCC	; 204
     666:	7a 80       	ldd	r7, Y+2	; 0x02
     668:	8a 9a       	sbi	0x11, 2	; 17
     66a:	90 7a       	andi	r25, 0xA0	; 160
     66c:	74 78       	andi	r23, 0x84	; 132
     66e:	77 7d       	andi	r23, 0xD7	; 215
     670:	84 8a       	std	Z+20, r8	; 0x14
     672:	8f 83       	std	Y+7, r24	; 0x07
     674:	7a 75       	andi	r23, 0x5A	; 90
     676:	79 82       	std	Y+1, r7	; 0x01
     678:	87 8f       	std	Z+31, r24	; 0x1f
     67a:	8f 87       	std	Y+15, r24	; 0x0f
     67c:	7b 72       	andi	r23, 0x2B	; 43
     67e:	6e 7c       	andi	r22, 0xCE	; 206
     680:	93 9a       	sbi	0x12, 3	; 18
     682:	9f 9d       	mul	r25, r15
     684:	90 85       	ldd	r25, Z+8	; 0x08
     686:	72 71       	andi	r23, 0x12	; 18
     688:	74 7b       	andi	r23, 0xB4	; 180
     68a:	8d 8b       	std	Y+21, r24	; 0x15
     68c:	8a 88       	ldd	r8, Y+18	; 0x12
     68e:	7e 71       	andi	r23, 0x1E	; 30
     690:	71 7c       	andi	r23, 0xC1	; 193
     692:	86 8b       	std	Z+22, r24	; 0x16
     694:	87 7e       	andi	r24, 0xE7	; 231
     696:	75 6b       	ori	r23, 0xB5	; 181
     698:	65 72       	andi	r22, 0x25	; 37
     69a:	82 8b       	std	Z+18, r24	; 0x12
     69c:	8c 7f       	andi	r24, 0xFC	; 252
     69e:	6b 64       	ori	r22, 0x4B	; 75
     6a0:	65 6e       	ori	r22, 0xE5	; 229
     6a2:	7f 9b       	sbis	0x0f, 7	; 15
     6a4:	a0 90 85 77 	lds	r10, 0x7785	; 0x807785 <__bss_end+0x7681>
     6a8:	74 72       	andi	r23, 0x24	; 36
     6aa:	82 88       	ldd	r8, Z+18	; 0x12
     6ac:	8b 93       	.word	0x938b	; ????
     6ae:	84 7b       	andi	r24, 0xB4	; 180
     6b0:	78 7c       	andi	r23, 0xC8	; 200
     6b2:	82 85       	ldd	r24, Z+10	; 0x0a
     6b4:	92 95       	swap	r25
     6b6:	8f 83       	std	Y+7, r24	; 0x07
     6b8:	7c 80       	ldd	r7, Y+4	; 0x04
     6ba:	77 7f       	andi	r23, 0xF7	; 247
     6bc:	8e 8e       	std	Y+30, r8	; 0x1e
     6be:	81 70       	andi	r24, 0x01	; 1
     6c0:	62 5a       	subi	r22, 0xA2	; 162
     6c2:	61 69       	ori	r22, 0x91	; 145
     6c4:	7a 8c       	ldd	r7, Y+26	; 0x1a
     6c6:	91 7f       	andi	r25, 0xF1	; 241
     6c8:	6b 63       	ori	r22, 0x3B	; 59
     6ca:	64 6b       	ori	r22, 0xB4	; 180
     6cc:	7b 8d       	ldd	r23, Y+27	; 0x1b
     6ce:	93 94       	inc	r9
     6d0:	80 6c       	ori	r24, 0xC0	; 192
     6d2:	6e 73       	andi	r22, 0x3E	; 62
     6d4:	7e 8f       	std	Y+30, r23	; 0x1e
     6d6:	97 91       	elpm	r25, Z+
     6d8:	84 73       	andi	r24, 0x34	; 52
     6da:	62 6a       	ori	r22, 0xA2	; 162
     6dc:	7e 8b       	std	Y+22, r23	; 0x16
     6de:	9a a2       	std	Y+34, r9	; 0x22
     6e0:	9d 94 87 7b 	jmp	0x26f70e	; 0x26f70e <__TEXT_REGION_LENGTH__+0x26770e>
     6e4:	7e 87       	std	Y+14, r23	; 0x0e
     6e6:	89 87       	std	Y+9, r24	; 0x09
     6e8:	7e 7b       	andi	r23, 0xBE	; 190
     6ea:	76 6d       	ori	r23, 0xD6	; 214
     6ec:	72 78       	andi	r23, 0x82	; 130
     6ee:	8a 95       	dec	r24
     6f0:	8e 83       	std	Y+6, r24	; 0x06
     6f2:	70 64       	ori	r23, 0x40	; 64
     6f4:	5e 67       	ori	r21, 0x7E	; 126
     6f6:	76 86       	std	Z+14, r7	; 0x0e
     6f8:	8f 85       	ldd	r24, Y+15	; 0x0f
     6fa:	7b 70       	andi	r23, 0x0B	; 11
     6fc:	70 79       	andi	r23, 0x90	; 144
     6fe:	87 98       	cbi	0x10, 7	; 16
     700:	9f a0       	ldd	r9, Y+39	; 0x27
     702:	93 80       	ldd	r9, Z+3	; 0x03
     704:	71 6e       	ori	r23, 0xE1	; 225
     706:	78 8e       	std	Y+24, r7	; 0x18
     708:	9d a4       	ldd	r9, Y+45	; 0x2d
     70a:	98 83       	st	Y, r25
     70c:	6a 5d       	subi	r22, 0xDA	; 218
     70e:	63 74       	andi	r22, 0x43	; 67
     710:	8f 9a       	sbi	0x11, 7	; 17
     712:	91 83       	std	Z+1, r25	; 0x01
     714:	74 64       	ori	r23, 0x44	; 68
     716:	64 6e       	ori	r22, 0xE4	; 228
     718:	7a 80       	ldd	r7, Y+2	; 0x02
     71a:	88 83       	st	Y, r24
     71c:	76 71       	andi	r23, 0x16	; 22
     71e:	74 7e       	andi	r23, 0xE4	; 228
     720:	8b a0       	ldd	r8, Y+35	; 0x23
     722:	a7 9e       	mul	r10, r23
     724:	8a 75       	andi	r24, 0x5A	; 90
     726:	6c 70       	andi	r22, 0x0C	; 12
     728:	80 90 97 91 	lds	r8, 0x9197	; 0x809197 <__bss_end+0x9093>
     72c:	79 67       	ori	r23, 0x79	; 121
     72e:	5c 57       	subi	r21, 0x7C	; 124
     730:	65 73       	andi	r22, 0x35	; 53
     732:	85 8a       	std	Z+21, r8	; 0x15
     734:	84 80       	ldd	r8, Z+4	; 0x04
     736:	76 78       	andi	r23, 0x86	; 134
     738:	86 94       	lsr	r8
     73a:	93 92       	.word	0x9293	; ????
     73c:	92 7f       	andi	r25, 0xF2	; 242
     73e:	77 82       	std	Z+7, r7	; 0x07
     740:	8e a0       	ldd	r8, Y+38	; 0x26
     742:	b1 b9       	out	0x01, r27	; 1
     744:	b1 9f       	mul	r27, r17
     746:	8d 75       	andi	r24, 0x5D	; 93
     748:	69 63       	ori	r22, 0x39	; 57
     74a:	67 72       	andi	r22, 0x27	; 39
     74c:	79 7c       	andi	r23, 0xC9	; 201
     74e:	6f 65       	ori	r22, 0x5F	; 95
     750:	62 5e       	subi	r22, 0xE2	; 226
     752:	5f 63       	ori	r21, 0x3F	; 63
     754:	67 6d       	ori	r22, 0xD7	; 215
     756:	62 56       	subi	r22, 0x62	; 98
     758:	52 59       	subi	r21, 0x92	; 146
     75a:	65 70       	andi	r22, 0x05	; 5
     75c:	8c a2       	std	Y+36, r8	; 0x24
     75e:	a1 9b       	sbis	0x14, 1	; 20
     760:	98 88       	ldd	r9, Y+16	; 0x10
     762:	85 96       	adiw	r24, 0x25	; 37
     764:	99 9b       	sbis	0x13, 1	; 19
     766:	a0 9d       	mul	r26, r0
     768:	90 80       	ld	r9, Z
     76a:	7c 7a       	andi	r23, 0xAC	; 172
     76c:	80 86       	std	Z+8, r8	; 0x08
     76e:	8b 83       	std	Y+3, r24	; 0x03
     770:	79 78       	andi	r23, 0x89	; 137
     772:	67 67       	ori	r22, 0x77	; 119
     774:	6e 72       	andi	r22, 0x2E	; 46
     776:	77 71       	andi	r23, 0x17	; 23
     778:	6c 60       	ori	r22, 0x0C	; 12
     77a:	61 68       	ori	r22, 0x81	; 129
     77c:	74 86       	std	Z+12, r7	; 0x0c
     77e:	99 9f       	mul	r25, r25
     780:	96 92       	lac	Z, r9
     782:	83 7d       	andi	r24, 0xD3	; 211
     784:	8e a0       	ldd	r8, Y+38	; 0x26
     786:	a4 a5       	ldd	r26, Z+44	; 0x2c
     788:	a6 95       	lsr	r26
     78a:	85 7b       	andi	r24, 0xB5	; 181
     78c:	76 7d       	andi	r23, 0xD6	; 214
     78e:	83 88       	ldd	r8, Z+19	; 0x13
     790:	8a 8a       	std	Y+18, r8	; 0x12
     792:	88 89       	ldd	r24, Y+16	; 0x10
     794:	82 7e       	andi	r24, 0xE2	; 226
     796:	87 88       	ldd	r8, Z+23	; 0x17
     798:	7c 6b       	ori	r23, 0xBC	; 188
     79a:	64 5e       	subi	r22, 0xE4	; 228
     79c:	5e 71       	andi	r21, 0x1E	; 30
     79e:	80 8d       	ldd	r24, Z+24	; 0x18
     7a0:	8d 78       	andi	r24, 0x8D	; 141
     7a2:	69 58       	subi	r22, 0x89	; 137
     7a4:	5c 66       	ori	r21, 0x6C	; 108
     7a6:	74 87       	std	Z+12, r23	; 0x0c
     7a8:	89 8b       	std	Y+17, r24	; 0x11
     7aa:	7e 6e       	ori	r23, 0xEE	; 238
     7ac:	66 67       	ori	r22, 0x76	; 118
     7ae:	78 80       	ld	r7, Y
     7b0:	95 a4       	ldd	r9, Z+45	; 0x2d
     7b2:	9c 98       	cbi	0x13, 4	; 19
     7b4:	90 8f       	std	Z+24, r25	; 0x18
     7b6:	8c 9f       	mul	r24, r28
     7b8:	ae a4       	ldd	r10, Y+46	; 0x2e
     7ba:	99 8d       	ldd	r25, Y+25	; 0x19
     7bc:	86 76       	andi	r24, 0x66	; 102
     7be:	6b 81       	ldd	r22, Y+3	; 0x03
     7c0:	8b 7b       	andi	r24, 0xBB	; 187
     7c2:	76 64       	ori	r23, 0x46	; 70
     7c4:	59 5b       	subi	r21, 0xB9	; 185
     7c6:	62 6e       	ori	r22, 0xE2	; 226
     7c8:	6f 82       	std	Y+7, r6	; 0x07
     7ca:	76 51       	subi	r23, 0x16	; 22
     7cc:	4a 43       	sbci	r20, 0x3A	; 58
     7ce:	46 53       	subi	r20, 0x36	; 54
     7d0:	68 85       	ldd	r22, Y+8	; 0x08
     7d2:	93 a0       	ldd	r9, Z+35	; 0x23
     7d4:	97 94       	ror	r9
     7d6:	9d a9       	ldd	r25, Y+53	; 0x35
     7d8:	b6 af       	std	Z+62, r27	; 0x3e
     7da:	ae a4       	ldd	r10, Y+46	; 0x2e
     7dc:	95 80       	ldd	r9, Z+5	; 0x05
     7de:	7d 8b       	std	Y+21, r23	; 0x15
     7e0:	8f 96       	adiw	r24, 0x2f	; 47
     7e2:	9b 8f       	std	Y+27, r25	; 0x1b
     7e4:	89 84       	ldd	r8, Y+9	; 0x09
     7e6:	77 76       	andi	r23, 0x67	; 103
     7e8:	6e 69       	ori	r22, 0x9E	; 158
     7ea:	6c 5f       	subi	r22, 0xFC	; 252
     7ec:	50 49       	sbci	r21, 0x90	; 144
     7ee:	4e 59       	subi	r20, 0x9E	; 158
     7f0:	68 87       	std	Y+8, r22	; 0x08
     7f2:	8e 93       	st	-X, r24
     7f4:	9d 91       	ld	r25, X+
     7f6:	8a 91       	ld	r24, -Y
     7f8:	9b 97       	sbiw	r26, 0x2b	; 43
     7fa:	93 93       	.word	0x9393	; ????
     7fc:	92 8e       	std	Z+26, r9	; 0x1a
     7fe:	87 83       	std	Z+7, r24	; 0x07
     800:	7e 80       	ldd	r7, Y+6	; 0x06
     802:	7d 79       	andi	r23, 0x9D	; 157
     804:	84 90       	lpm	r8, Z
     806:	89 7d       	andi	r24, 0xD9	; 217
     808:	75 61       	ori	r23, 0x15	; 21
     80a:	56 56       	subi	r21, 0x66	; 102
     80c:	5c 5e       	subi	r21, 0xEC	; 236
     80e:	60 72       	andi	r22, 0x20	; 32
     810:	6f 64       	ori	r22, 0x4F	; 79
     812:	64 69       	ori	r22, 0x94	; 148
     814:	73 87       	std	Z+11, r23	; 0x0b
     816:	97 9d       	mul	r25, r7
     818:	a5 a6       	std	Z+45, r10	; 0x2d
     81a:	98 88       	ldd	r9, Y+16	; 0x10
     81c:	8c 95 a0 a8 	jmp	0x615140	; 0x615140 <__TEXT_REGION_LENGTH__+0x60d140>
     820:	9e 96       	adiw	r26, 0x2e	; 46
     822:	82 73       	andi	r24, 0x32	; 50
     824:	74 80       	ldd	r7, Z+4	; 0x04
     826:	93 95       	inc	r25
     828:	93 88       	ldd	r9, Z+19	; 0x13
     82a:	75 62       	ori	r23, 0x25	; 37
     82c:	58 66       	ori	r21, 0x68	; 104
     82e:	75 7e       	andi	r23, 0xE5	; 229
     830:	86 85       	ldd	r24, Z+14	; 0x0e
     832:	6d 55       	subi	r22, 0x5D	; 93
     834:	59 61       	ori	r21, 0x19	; 25
     836:	72 8e       	std	Z+26, r7	; 0x1a
     838:	97 9a       	sbi	0x12, 7	; 18
     83a:	89 73       	andi	r24, 0x39	; 57
     83c:	68 64       	ori	r22, 0x48	; 72
     83e:	76 85       	ldd	r23, Z+14	; 0x0e
     840:	8d 8e       	std	Y+29, r8	; 0x1d
     842:	8c 82       	std	Y+4, r8	; 0x04
     844:	79 7b       	andi	r23, 0xB9	; 185
     846:	82 93       	st	-Z, r24
     848:	95 91       	lpm	r25, Z+
     84a:	88 7c       	andi	r24, 0xC8	; 200
     84c:	7f 89       	ldd	r23, Y+23	; 0x17
     84e:	93 9a       	sbi	0x12, 3	; 18
     850:	a7 a8       	ldd	r10, Z+55	; 0x37
     852:	94 81       	ldd	r25, Z+4	; 0x04
     854:	76 74       	andi	r23, 0x46	; 70
     856:	7f 89       	ldd	r23, Y+23	; 0x17
     858:	8e 9a       	sbi	0x11, 6	; 17
     85a:	97 85       	ldd	r25, Z+15	; 0x0f
     85c:	73 65       	ori	r23, 0x53	; 83
     85e:	60 5a       	subi	r22, 0xA0	; 160
     860:	66 69       	ori	r22, 0x96	; 150
     862:	5d 65       	ori	r21, 0x5D	; 93
     864:	60 53       	subi	r22, 0x30	; 48
     866:	4e 58       	subi	r20, 0x8E	; 142
     868:	66 6c       	ori	r22, 0xC6	; 198
     86a:	77 84       	ldd	r7, Z+15	; 0x0f
     86c:	8c 8e       	std	Y+28, r8	; 0x1c
     86e:	89 87       	std	Y+9, r24	; 0x09
     870:	8a 84       	ldd	r8, Y+10	; 0x0a
     872:	84 84       	ldd	r8, Z+12	; 0x0c
     874:	79 7c       	andi	r23, 0xC9	; 201
     876:	84 88       	ldd	r8, Z+20	; 0x14
     878:	94 a7       	std	Z+44, r25	; 0x2c
     87a:	ad 9f       	mul	r26, r29
     87c:	8d 7a       	andi	r24, 0xAD	; 173
     87e:	6d 6b       	ori	r22, 0xBD	; 189
     880:	6f 72       	andi	r22, 0x2F	; 47
     882:	7f 8a       	std	Y+23, r7	; 0x17
     884:	80 78       	andi	r24, 0x80	; 128
     886:	79 81       	ldd	r23, Y+1	; 0x01
     888:	95 9d       	mul	r25, r5
     88a:	97 98       	cbi	0x12, 7	; 18
     88c:	8f 81       	ldd	r24, Y+7	; 0x07
     88e:	7a 79       	andi	r23, 0x9A	; 154
     890:	86 94       	lsr	r8
     892:	a4 a7       	std	Z+44, r26	; 0x2c
     894:	9d 95 8b 78 	jmp	0x66f116	; 0x66f116 <__TEXT_REGION_LENGTH__+0x667116>
     898:	6e 72       	andi	r22, 0x2E	; 46
     89a:	6e 79       	andi	r22, 0x9E	; 158
     89c:	7e 78       	andi	r23, 0x8E	; 142
     89e:	73 74       	andi	r23, 0x43	; 67
     8a0:	6d 64       	ori	r22, 0x4D	; 77
     8a2:	65 68       	ori	r22, 0x85	; 133
     8a4:	5d 55       	subi	r21, 0x5D	; 93
     8a6:	53 54       	subi	r21, 0x43	; 67
     8a8:	60 75       	andi	r22, 0x50	; 80
     8aa:	8c 97       	sbiw	r24, 0x2c	; 44
     8ac:	9e 9e       	mul	r9, r30
     8ae:	97 8a       	std	Z+23, r9	; 0x17
     8b0:	86 8a       	std	Z+22, r8	; 0x16
     8b2:	92 9f       	mul	r25, r18
     8b4:	a0 99       	sbic	0x14, 0	; 20
     8b6:	98 88       	ldd	r9, Y+16	; 0x10
     8b8:	7d 7f       	andi	r23, 0xFD	; 253
     8ba:	7d 7f       	andi	r23, 0xFD	; 253
     8bc:	79 75       	andi	r23, 0x59	; 89
     8be:	68 64       	ori	r22, 0x48	; 72
     8c0:	5f 5a       	subi	r21, 0xAF	; 175
     8c2:	5a 5b       	subi	r21, 0xBA	; 186
     8c4:	6d 75       	andi	r22, 0x5D	; 93
     8c6:	7b 7d       	andi	r23, 0xDB	; 219
     8c8:	7f 84       	ldd	r7, Y+15	; 0x0f
     8ca:	7d 83       	std	Y+5, r23	; 0x05
     8cc:	8f 9e       	mul	r8, r31
     8ce:	ad b3       	in	r26, 0x1d	; 29
     8d0:	b0 aa       	std	Z+48, r11	; 0x30
     8d2:	a8 a2       	std	Y+32, r10	; 0x20
     8d4:	9c a4       	ldd	r9, Y+44	; 0x2c
     8d6:	a3 98       	cbi	0x14, 3	; 20
     8d8:	8d 74       	andi	r24, 0x4D	; 77
     8da:	5e 56       	subi	r21, 0x6E	; 110
     8dc:	54 57       	subi	r21, 0x74	; 116
     8de:	5b 5b       	subi	r21, 0xBB	; 187
     8e0:	5b 52       	subi	r21, 0x2B	; 43
     8e2:	47 41       	sbci	r20, 0x17	; 23
     8e4:	4b 61       	ori	r20, 0x1B	; 27
     8e6:	70 82       	st	Z, r7
     8e8:	85 91       	lpm	r24, Z+
     8ea:	99 8c       	ldd	r9, Y+25	; 0x19
     8ec:	93 a7       	std	Z+43, r25	; 0x2b
     8ee:	b6 bf       	out	0x36, r27	; 54
     8f0:	be be       	out	0x3e, r11	; 62
     8f2:	b3 af       	std	Z+59, r27	; 0x3b
     8f4:	ab 9a       	sbi	0x15, 3	; 21
     8f6:	96 91       	elpm	r25, Z
     8f8:	89 77       	andi	r24, 0x79	; 121
     8fa:	6b 68       	ori	r22, 0x8B	; 139
     8fc:	5d 51       	subi	r21, 0x1D	; 29
     8fe:	49 49       	sbci	r20, 0x99	; 153
     900:	48 45       	sbci	r20, 0x58	; 88
     902:	47 42       	sbci	r20, 0x27	; 39
     904:	46 59       	subi	r20, 0x96	; 150
     906:	5f 6e       	ori	r21, 0xEF	; 239
     908:	76 84       	ldd	r7, Z+14	; 0x0e
     90a:	90 81       	ld	r25, Z
     90c:	7d 7f       	andi	r23, 0xFD	; 253
     90e:	80 89       	ldd	r24, Z+16	; 0x10
     910:	98 b0       	in	r9, 0x08	; 8
     912:	ba c2       	rjmp	.+1396   	; 0xe88 <__stack+0x589>
     914:	c6 bc       	out	0x26, r12	; 38
     916:	b0 a1       	ldd	r27, Z+32	; 0x20
     918:	9b 8b       	std	Y+19, r25	; 0x13
     91a:	7d 7a       	andi	r23, 0xAD	; 173
     91c:	72 69       	ori	r23, 0x92	; 146
     91e:	63 5e       	subi	r22, 0xE3	; 227
     920:	57 58       	subi	r21, 0x87	; 135
     922:	61 69       	ori	r22, 0x91	; 145
     924:	6d 6d       	ori	r22, 0xDD	; 221
     926:	72 70       	andi	r23, 0x02	; 2
     928:	67 68       	ori	r22, 0x87	; 135
     92a:	6e 7b       	andi	r22, 0xBE	; 190
     92c:	84 8c       	ldd	r8, Z+28	; 0x1c
     92e:	91 91       	ld	r25, Z+
     930:	9a 9d       	mul	r25, r10
     932:	a2 a9       	ldd	r26, Z+50	; 0x32
     934:	b2 af       	std	Z+58, r27	; 0x3a
     936:	9c 90       	ld	r9, X
     938:	7e 72       	andi	r23, 0x2E	; 46
     93a:	73 79       	andi	r23, 0x93	; 147
     93c:	81 82       	std	Z+1, r8	; 0x01
     93e:	7e 74       	andi	r23, 0x4E	; 78
     940:	6a 62       	ori	r22, 0x2A	; 42
     942:	63 65       	ori	r22, 0x53	; 83
     944:	61 5e       	subi	r22, 0xE1	; 225
     946:	5a 56       	subi	r21, 0x6A	; 106
     948:	55 59       	subi	r21, 0x95	; 149
     94a:	6c 84       	ldd	r6, Y+12	; 0x0c
     94c:	8f 9d       	mul	r24, r15
     94e:	ac ac       	ldd	r10, Y+60	; 0x3c
     950:	a7 9f       	mul	r26, r23
     952:	9e a2       	std	Y+38, r9	; 0x26
     954:	a8 b2       	in	r10, 0x18	; 24
     956:	ad a7       	std	Y+45, r26	; 0x2d
     958:	a4 a2       	std	Z+36, r10	; 0x24
     95a:	92 83       	std	Z+2, r25	; 0x02
     95c:	82 82       	std	Z+2, r8	; 0x02
     95e:	7b 66       	ori	r23, 0x6B	; 107
     960:	5d 5a       	subi	r21, 0xAD	; 173
     962:	4d 3e       	cpi	r20, 0xED	; 237
     964:	39 42       	sbci	r19, 0x29	; 41
     966:	4f 5d       	subi	r20, 0xDF	; 223
     968:	63 72       	andi	r22, 0x23	; 35
     96a:	7d 77       	andi	r23, 0x7D	; 125
     96c:	79 81       	ldd	r23, Y+1	; 0x01
     96e:	88 8a       	std	Y+16, r8	; 0x10
     970:	89 83       	std	Y+1, r24	; 0x01
     972:	7f 86       	std	Y+15, r7	; 0x0f
     974:	99 ab       	std	Y+49, r25	; 0x31
     976:	b8 c4       	rjmp	.+2416   	; 0x12e8 <__stack+0x9e9>
     978:	bd a9       	ldd	r27, Y+53	; 0x35
     97a:	92 77       	andi	r25, 0x72	; 114
     97c:	6a 68       	ori	r22, 0x8A	; 138
     97e:	64 67       	ori	r22, 0x74	; 116
     980:	6b 6c       	ori	r22, 0xCB	; 203
     982:	6c 6d       	ori	r22, 0xDC	; 220
     984:	6b 6f       	ori	r22, 0xFB	; 251
     986:	7c 81       	ldd	r23, Y+4	; 0x04
     988:	74 6d       	ori	r23, 0xD4	; 212
     98a:	6e 67       	ori	r22, 0x7E	; 126
     98c:	6c 70       	andi	r22, 0x0C	; 12
     98e:	7c 92       	st	X, r7
     990:	9d 9c       	mul	r9, r13
     992:	9b 9a       	sbi	0x13, 3	; 19
     994:	9d a6       	std	Y+45, r9	; 0x2d
     996:	a9 9d       	mul	r26, r9
     998:	91 89       	ldd	r25, Z+17	; 0x11
     99a:	7c 72       	andi	r23, 0x2C	; 44
     99c:	6e 7a       	andi	r22, 0xAE	; 174
     99e:	84 7a       	andi	r24, 0xA4	; 164
     9a0:	6c 63       	ori	r22, 0x3C	; 60
     9a2:	54 48       	sbci	r21, 0x84	; 132
     9a4:	42 49       	sbci	r20, 0x92	; 146
     9a6:	5a 6e       	ori	r21, 0xEA	; 234
     9a8:	80 8e       	std	Z+24, r8	; 0x18
     9aa:	95 96       	adiw	r26, 0x25	; 37
     9ac:	9c 96       	adiw	r26, 0x2c	; 44
     9ae:	99 9c       	mul	r9, r9
     9b0:	95 8d       	ldd	r25, Z+29	; 0x1d
     9b2:	8d 95 93 93 	jmp	0x632726	; 0x632726 <__TEXT_REGION_LENGTH__+0x62a726>
     9b6:	9f a9       	ldd	r25, Y+55	; 0x37
     9b8:	aa a2       	std	Y+34, r10	; 0x22
     9ba:	94 81       	ldd	r25, Z+4	; 0x04
     9bc:	77 6c       	ori	r23, 0xC7	; 199
     9be:	62 61       	ori	r22, 0x12	; 18
     9c0:	6e 78       	andi	r22, 0x8E	; 142
     9c2:	6e 63       	ori	r22, 0x3E	; 62
     9c4:	60 60       	ori	r22, 0x00	; 0
     9c6:	57 59       	subi	r21, 0x97	; 151
     9c8:	69 78       	andi	r22, 0x89	; 137
     9ca:	7c 7e       	andi	r23, 0xEC	; 236
     9cc:	7b 73       	andi	r23, 0x3B	; 59
     9ce:	71 73       	andi	r23, 0x31	; 49
     9d0:	79 84       	ldd	r7, Y+9	; 0x09
     9d2:	8e 89       	ldd	r24, Y+22	; 0x16
     9d4:	80 79       	andi	r24, 0x90	; 144
     9d6:	75 7d       	andi	r23, 0xD5	; 213
     9d8:	8f 99       	sbic	0x11, 7	; 17
     9da:	a8 b3       	in	r26, 0x18	; 24
     9dc:	ac a4       	ldd	r10, Y+44	; 0x2c
     9de:	96 91       	elpm	r25, Z
     9e0:	89 84       	ldd	r8, Y+9	; 0x09
     9e2:	82 7b       	andi	r24, 0xB2	; 178
     9e4:	7a 79       	andi	r23, 0x9A	; 154
     9e6:	71 71       	andi	r23, 0x11	; 17
     9e8:	7c 86       	std	Y+12, r7	; 0x0c
     9ea:	8e 8e       	std	Y+30, r8	; 0x1e
     9ec:	87 7e       	andi	r24, 0xE7	; 231
     9ee:	78 78       	andi	r23, 0x88	; 136
     9f0:	79 78       	andi	r23, 0x89	; 137
     9f2:	7e 7d       	andi	r23, 0xDE	; 222
     9f4:	79 74       	andi	r23, 0x49	; 73
     9f6:	70 73       	andi	r23, 0x30	; 48
     9f8:	70 72       	andi	r23, 0x20	; 32
     9fa:	76 80       	ldd	r7, Z+6	; 0x06
     9fc:	84 86       	std	Z+12, r8	; 0x0c
     9fe:	88 8c       	ldd	r8, Y+24	; 0x18
     a00:	93 8c       	ldd	r9, Z+27	; 0x1b
     a02:	81 7f       	andi	r24, 0xF1	; 241
     a04:	78 73       	andi	r23, 0x38	; 56
     a06:	6f 71       	andi	r22, 0x1F	; 31
     a08:	7e 82       	std	Y+6, r7	; 0x06
     a0a:	83 7d       	andi	r24, 0xD3	; 211
     a0c:	7d 81       	ldd	r23, Y+5	; 0x05
     a0e:	83 83       	std	Z+3, r24	; 0x03
     a10:	7c 75       	andi	r23, 0x5C	; 92
     a12:	69 65       	ori	r22, 0x59	; 89
     a14:	62 61       	ori	r22, 0x12	; 18
     a16:	75 89       	ldd	r23, Z+21	; 0x15
     a18:	8c 8e       	std	Y+28, r8	; 0x1c
     a1a:	90 8e       	std	Z+24, r9	; 0x18
     a1c:	91 90       	ld	r9, Z+
     a1e:	94 8f       	std	Z+28, r25	; 0x1c
     a20:	86 7c       	andi	r24, 0xC6	; 198
     a22:	6a 62       	ori	r22, 0x2A	; 42
     a24:	64 74       	andi	r22, 0x44	; 68
     a26:	82 91       	ld	r24, -Z
     a28:	9c 8f       	std	Y+28, r25	; 0x1c
     a2a:	87 7d       	andi	r24, 0xD7	; 215
     a2c:	74 7e       	andi	r23, 0xE4	; 228
     a2e:	87 94       	ror	r8
     a30:	94 8b       	std	Z+20, r25	; 0x14
     a32:	7f 77       	andi	r23, 0x7F	; 127
     a34:	76 77       	andi	r23, 0x76	; 118
     a36:	7b 86       	std	Y+11, r7	; 0x0b
     a38:	99 97       	sbiw	r26, 0x29	; 41
     a3a:	96 96       	adiw	r26, 0x26	; 38
     a3c:	92 8b       	std	Z+18, r25	; 0x12
     a3e:	83 7f       	andi	r24, 0xF3	; 243
     a40:	77 72       	andi	r23, 0x27	; 39
     a42:	6a 5b       	subi	r22, 0xBA	; 186
     a44:	55 5b       	subi	r21, 0xB5	; 181
     a46:	63 6b       	ori	r22, 0xB3	; 179
     a48:	77 7b       	andi	r23, 0xB7	; 183
     a4a:	7a 75       	andi	r23, 0x5A	; 90
     a4c:	6d 6c       	ori	r22, 0xCD	; 205
     a4e:	6e 70       	andi	r22, 0x0E	; 14
     a50:	71 79       	andi	r23, 0x91	; 145
     a52:	7e 7b       	andi	r23, 0xBE	; 190
     a54:	78 7b       	andi	r23, 0xB8	; 184
     a56:	7b 7d       	andi	r23, 0xDB	; 219
     a58:	8d 9a       	sbi	0x11, 5	; 17
     a5a:	a7 a8       	ldd	r10, Z+55	; 0x37
     a5c:	a0 9e       	mul	r10, r16
     a5e:	9d 9e       	mul	r9, r29
     a60:	9b a1       	ldd	r25, Y+35	; 0x23
     a62:	96 85       	ldd	r25, Z+14	; 0x0e
     a64:	74 5c       	subi	r23, 0xC4	; 196
     a66:	5f 65       	ori	r21, 0x5F	; 95
     a68:	67 6c       	ori	r22, 0xC7	; 199
     a6a:	6e 71       	andi	r22, 0x1E	; 30
     a6c:	6c 72       	andi	r22, 0x2C	; 44
     a6e:	7f 8f       	std	Y+31, r23	; 0x1f
     a70:	9e 9e       	mul	r9, r30
     a72:	9d 97       	sbiw	r26, 0x2d	; 45
     a74:	96 80       	ldd	r9, Z+6	; 0x06
     a76:	74 7a       	andi	r23, 0xA4	; 164
     a78:	7b 8e       	std	Y+27, r7	; 0x1b
     a7a:	93 9b       	sbis	0x12, 3	; 18
     a7c:	9f 98       	cbi	0x13, 7	; 19
     a7e:	8e 7c       	andi	r24, 0xCE	; 206
     a80:	74 69       	ori	r23, 0x94	; 148
     a82:	6a 6a       	ori	r22, 0xAA	; 170
     a84:	64 65       	ori	r22, 0x54	; 84
     a86:	6f 79       	andi	r22, 0x9F	; 159
     a88:	79 7e       	andi	r23, 0xE9	; 233
     a8a:	7b 78       	andi	r23, 0x8B	; 139
     a8c:	75 76       	andi	r23, 0x65	; 101
     a8e:	7b 78       	andi	r23, 0x8B	; 139
     a90:	8c 96       	adiw	r24, 0x2c	; 44
     a92:	94 96       	adiw	r26, 0x24	; 36
     a94:	8d 86       	std	Y+13, r8	; 0x0d
     a96:	76 72       	andi	r23, 0x26	; 38
     a98:	78 83       	st	Y, r23
     a9a:	93 95       	inc	r25
     a9c:	98 91       	.word	0x9198	; ????
     a9e:	8d 84       	ldd	r8, Y+13	; 0x0d
     aa0:	76 76       	andi	r23, 0x66	; 102
     aa2:	75 6d       	ori	r23, 0xD5	; 213
     aa4:	60 60       	ori	r22, 0x00	; 0
     aa6:	67 6b       	ori	r22, 0xB7	; 183
     aa8:	6b 6f       	ori	r22, 0xFB	; 251
     aaa:	73 7f       	andi	r23, 0xF3	; 243
     aac:	83 81       	ldd	r24, Z+3	; 0x03
     aae:	84 80       	ldd	r8, Z+4	; 0x04
     ab0:	85 84       	ldd	r8, Z+13	; 0x0d
     ab2:	7a 7d       	andi	r23, 0xDA	; 218
     ab4:	84 7d       	andi	r24, 0xD4	; 212
     ab6:	69 65       	ori	r22, 0x59	; 89
     ab8:	6c 63       	ori	r22, 0x3C	; 60
     aba:	67 74       	andi	r22, 0x47	; 71
     abc:	81 81       	ldd	r24, Z+1	; 0x01
     abe:	88 92       	.word	0x9288	; ????
     ac0:	8e 8b       	std	Y+22, r24	; 0x16
     ac2:	8d 90       	ld	r8, X+
     ac4:	8e 88       	ldd	r8, Y+22	; 0x16
     ac6:	80 80       	ld	r8, Z
     ac8:	83 89       	ldd	r24, Z+19	; 0x13
     aca:	8e 9e       	mul	r8, r30
     acc:	aa b0       	in	r10, 0x0a	; 10
     ace:	ae a0       	ldd	r10, Y+38	; 0x26
     ad0:	8e 80       	ldd	r8, Y+6	; 0x06
     ad2:	74 6a       	ori	r23, 0xA4	; 164
     ad4:	6c 6f       	ori	r22, 0xFC	; 252
     ad6:	75 7b       	andi	r23, 0xB5	; 181
     ad8:	80 78       	andi	r24, 0x80	; 128
     ada:	6b 63       	ori	r22, 0x3B	; 59
     adc:	55 55       	subi	r21, 0x55	; 85
     ade:	62 6e       	ori	r22, 0xE2	; 226
     ae0:	82 81       	ldd	r24, Z+2	; 0x02
     ae2:	7e 80       	ldd	r7, Y+6	; 0x06
     ae4:	75 78       	andi	r23, 0x85	; 133
     ae6:	82 98       	cbi	0x10, 2	; 16
     ae8:	a2 9e       	mul	r10, r18
     aea:	9b a2       	std	Y+35, r9	; 0x23
     aec:	a5 a4       	ldd	r10, Z+45	; 0x2d
     aee:	b2 b6       	in	r11, 0x32	; 50
     af0:	ae 9c       	mul	r10, r14
     af2:	7c 5e       	subi	r23, 0xEC	; 236
     af4:	51 54       	subi	r21, 0x41	; 65
     af6:	63 79       	andi	r22, 0x93	; 147
     af8:	8c 87       	std	Y+12, r24	; 0x0c
     afa:	6f 55       	subi	r22, 0x5F	; 95
     afc:	42 47       	sbci	r20, 0x72	; 114
     afe:	56 65       	ori	r21, 0x56	; 86
     b00:	7b 88       	ldd	r7, Y+19	; 0x13
     b02:	7f 76       	andi	r23, 0x6F	; 111
     b04:	79 82       	std	Y+1, r7	; 0x01
     b06:	92 a7       	std	Z+42, r25	; 0x2a
     b08:	b3 bb       	out	0x13, r27	; 19
     b0a:	b6 a4       	ldd	r11, Z+46	; 0x2e
     b0c:	95 90       	lpm	r9, Z+
     b0e:	96 95       	lsr	r25
     b10:	91 8c       	ldd	r9, Z+25	; 0x19
     b12:	7e 6b       	ori	r23, 0xBE	; 190
     b14:	61 55       	subi	r22, 0x51	; 81
     b16:	59 65       	ori	r21, 0x59	; 89
     b18:	61 5a       	subi	r22, 0xA1	; 161
     b1a:	50 44       	sbci	r21, 0x40	; 64
     b1c:	3e 3e       	cpi	r19, 0xEE	; 238
     b1e:	4d 5d       	subi	r20, 0xDD	; 221
     b20:	6b 73       	andi	r22, 0x3B	; 59
     b22:	6f 72       	andi	r22, 0x2F	; 47
     b24:	78 7f       	andi	r23, 0xF8	; 248
     b26:	88 a0       	ldd	r8, Y+32	; 0x20
     b28:	af b3       	in	r26, 0x1f	; 31
     b2a:	b8 b4       	in	r11, 0x28	; 40
     b2c:	b3 ac       	ldd	r11, Z+59	; 0x3b
     b2e:	a5 a9       	ldd	r26, Z+53	; 0x35
     b30:	ad ac       	ldd	r10, Y+61	; 0x3d
     b32:	a3 95       	inc	r26
     b34:	8b 81       	ldd	r24, Y+3	; 0x03
     b36:	78 72       	andi	r23, 0x28	; 40
     b38:	6f 74       	andi	r22, 0x4F	; 79
     b3a:	6e 62       	ori	r22, 0x2E	; 46
     b3c:	5c 5d       	subi	r21, 0xDC	; 220
     b3e:	59 5d       	subi	r21, 0xD9	; 217
     b40:	6b 73       	andi	r22, 0x3B	; 59
     b42:	81 83       	std	Z+1, r24	; 0x01
     b44:	7e 79       	andi	r23, 0x9E	; 158
     b46:	78 7a       	andi	r23, 0xA8	; 168
     b48:	7e 87       	std	Y+14, r23	; 0x0e
     b4a:	98 a5       	ldd	r25, Y+40	; 0x28
     b4c:	a3 a4       	ldd	r10, Z+43	; 0x2b
     b4e:	a6 a8       	ldd	r10, Z+54	; 0x36
     b50:	a2 98       	cbi	0x14, 2	; 20
     b52:	95 8a       	std	Z+21, r9	; 0x15
     b54:	7e 75       	andi	r23, 0x5E	; 94
     b56:	70 6a       	ori	r23, 0xA0	; 160
     b58:	61 60       	ori	r22, 0x01	; 1
     b5a:	5b 5d       	subi	r21, 0xDB	; 219
     b5c:	60 60       	ori	r22, 0x00	; 0
     b5e:	63 63       	ori	r22, 0x33	; 51
     b60:	69 64       	ori	r22, 0x49	; 73
     b62:	65 65       	ori	r22, 0x55	; 85
     b64:	68 6c       	ori	r22, 0xC8	; 200
     b66:	6f 78       	andi	r22, 0x8F	; 143
     b68:	7b 8a       	std	Y+19, r7	; 0x13
     b6a:	94 9c       	mul	r9, r4
     b6c:	a6 ab       	std	Z+54, r26	; 0x36
     b6e:	b5 b7       	in	r27, 0x35	; 53
     b70:	b3 ad       	ldd	r27, Z+59	; 0x3b
     b72:	a3 a0       	ldd	r10, Z+35	; 0x23
     b74:	93 88       	ldd	r9, Z+19	; 0x13
     b76:	81 77       	andi	r24, 0x71	; 113
     b78:	72 6e       	ori	r23, 0xE2	; 226
     b7a:	75 83       	std	Z+5, r23	; 0x05
     b7c:	90 99       	sbic	0x12, 0	; 18
     b7e:	99 8b       	std	Y+17, r25	; 0x11
     b80:	7a 6d       	ori	r23, 0xDA	; 218
     b82:	5a 53       	subi	r21, 0x3A	; 58
     b84:	50 50       	subi	r21, 0x00	; 0
     b86:	5a 68       	ori	r21, 0x8A	; 138
     b88:	73 7c       	andi	r23, 0xC3	; 195
     b8a:	80 87       	std	Z+8, r24	; 0x08
     b8c:	89 82       	std	Y+1, r8	; 0x01
     b8e:	86 8f       	std	Z+30, r24	; 0x1e
     b90:	8a 7d       	andi	r24, 0xDA	; 218
     b92:	71 65       	ori	r23, 0x51	; 81
     b94:	63 64       	ori	r22, 0x43	; 67
     b96:	65 6d       	ori	r22, 0xD5	; 213
     b98:	77 82       	std	Z+7, r7	; 0x07
     b9a:	86 88       	ldd	r8, Z+22	; 0x16
     b9c:	93 95       	inc	r25
     b9e:	91 8d       	ldd	r25, Z+25	; 0x19
     ba0:	8f 93       	push	r24
     ba2:	8b 7f       	andi	r24, 0xFB	; 251
     ba4:	71 7b       	andi	r23, 0xB1	; 177
     ba6:	7c 80       	ldd	r7, Y+4	; 0x04
     ba8:	86 80       	ldd	r8, Z+6	; 0x06
     baa:	86 78       	andi	r24, 0x86	; 134
     bac:	6e 67       	ori	r22, 0x7E	; 126
     bae:	61 6d       	ori	r22, 0xD1	; 209
     bb0:	68 6c       	ori	r22, 0xC8	; 200
     bb2:	79 84       	ldd	r7, Y+9	; 0x09
     bb4:	8b 83       	std	Y+3, r24	; 0x03
     bb6:	8d 93       	st	X+, r24
     bb8:	95 9c       	mul	r9, r5
     bba:	9c 98       	cbi	0x13, 4	; 19
     bbc:	8b 86       	std	Y+11, r8	; 0x0b
     bbe:	84 84       	ldd	r8, Z+12	; 0x0c
     bc0:	96 b1       	in	r25, 0x06	; 6
     bc2:	be b8       	out	0x0e, r11	; 14
     bc4:	aa 97       	sbiw	r28, 0x2a	; 42
     bc6:	7b 5c       	subi	r23, 0xCB	; 203
     bc8:	54 60       	ori	r21, 0x04	; 4
     bca:	70 76       	andi	r23, 0x60	; 96
     bcc:	78 75       	andi	r23, 0x58	; 88
     bce:	6b 69       	ori	r22, 0x9B	; 155
     bd0:	61 64       	ori	r22, 0x41	; 65
     bd2:	74 7a       	andi	r23, 0xA4	; 164
     bd4:	6c 5e       	subi	r22, 0xEC	; 236
     bd6:	56 5b       	subi	r21, 0xB6	; 182
     bd8:	60 75       	andi	r22, 0x50	; 80
     bda:	99 aa       	std	Y+49, r9	; 0x31
     bdc:	b1 a7       	std	Z+41, r27	; 0x29
     bde:	9e 8d       	ldd	r25, Y+30	; 0x1e
     be0:	82 7f       	andi	r24, 0xF2	; 242
     be2:	89 a1       	ldd	r24, Y+33	; 0x21
     be4:	a0 97       	sbiw	r28, 0x20	; 32
     be6:	90 81       	ld	r25, Z
     be8:	7b 70       	andi	r23, 0x0B	; 11
     bea:	6c 75       	andi	r22, 0x5C	; 92
     bec:	7a 71       	andi	r23, 0x1A	; 26
     bee:	5c 58       	subi	r21, 0x8C	; 140
     bf0:	4d 4d       	sbci	r20, 0xDD	; 221
     bf2:	54 5e       	subi	r21, 0xE4	; 228
     bf4:	6f 78       	andi	r22, 0x8F	; 143
     bf6:	7b 74       	andi	r23, 0x4B	; 75
     bf8:	75 78       	andi	r23, 0x85	; 133
     bfa:	82 8f       	std	Z+26, r24	; 0x1a
     bfc:	a4 bc       	out	0x24, r10	; 36
     bfe:	c8 c6       	rjmp	.+3472   	; 0x1990 <__stack+0x1091>
     c00:	ba b1       	in	r27, 0x0a	; 10
     c02:	9e 93       	st	-X, r25
     c04:	89 8c       	ldd	r8, Y+25	; 0x19
     c06:	8f 7c       	andi	r24, 0xCF	; 207
     c08:	6e 65       	ori	r22, 0x5E	; 94
     c0a:	64 67       	ori	r22, 0x74	; 116
     c0c:	72 78       	andi	r23, 0x82	; 130
     c0e:	7b 77       	andi	r23, 0x7B	; 123
     c10:	63 57       	subi	r22, 0x73	; 115
     c12:	4b 4a       	sbci	r20, 0xAB	; 171
     c14:	53 61       	ori	r21, 0x13	; 19
     c16:	6e 74       	andi	r22, 0x4E	; 78
     c18:	7a 71       	andi	r23, 0x1A	; 26
     c1a:	6f 68       	ori	r22, 0x8F	; 143
     c1c:	77 91       	elpm	r23, Z+
     c1e:	ac c6       	rjmp	.+3416   	; 0x1978 <__stack+0x1079>
     c20:	bd bb       	out	0x1d, r27	; 29
     c22:	a9 9a       	sbi	0x15, 1	; 21
     c24:	8e 87       	std	Y+14, r24	; 0x0e
     c26:	8f 8d       	ldd	r24, Y+31	; 0x1f
     c28:	8d 86       	std	Y+13, r8	; 0x0d
     c2a:	87 85       	ldd	r24, Z+15	; 0x0f
     c2c:	83 7f       	andi	r24, 0xF3	; 243
     c2e:	78 77       	andi	r23, 0x78	; 120
     c30:	72 73       	andi	r23, 0x32	; 50
     c32:	66 5d       	subi	r22, 0xD6	; 214
     c34:	6a 6e       	ori	r22, 0xEA	; 234
     c36:	71 6e       	ori	r23, 0xE1	; 225
     c38:	73 71       	andi	r23, 0x13	; 19
     c3a:	6f 66       	ori	r22, 0x6F	; 111
     c3c:	5d 62       	ori	r21, 0x2D	; 45
     c3e:	6f 86       	std	Y+15, r6	; 0x0f
     c40:	87 8a       	std	Z+23, r8	; 0x17
     c42:	83 83       	std	Z+3, r24	; 0x03
     c44:	81 74       	andi	r24, 0x41	; 65
     c46:	7a 8a       	std	Y+18, r7	; 0x12
     c48:	94 8e       	std	Z+28, r9	; 0x1c
     c4a:	94 97       	sbiw	r26, 0x24	; 36
     c4c:	9d a5       	ldd	r25, Y+45	; 0x2d
     c4e:	9a 98       	cbi	0x13, 2	; 19
     c50:	97 91       	elpm	r25, Z+
     c52:	7e 73       	andi	r23, 0x3E	; 62
     c54:	6f 6e       	ori	r22, 0xEF	; 239
     c56:	79 79       	andi	r23, 0x99	; 153
     c58:	85 86       	std	Z+13, r8	; 0x0d
     c5a:	81 7b       	andi	r24, 0xB1	; 177
     c5c:	77 75       	andi	r23, 0x57	; 87
     c5e:	79 8b       	std	Y+17, r23	; 0x11
     c60:	91 8d       	ldd	r25, Z+25	; 0x19
     c62:	81 7e       	andi	r24, 0xE1	; 225
     c64:	74 67       	ori	r23, 0x74	; 116
     c66:	6b 70       	andi	r22, 0x0B	; 11
     c68:	7c 88       	ldd	r7, Y+20	; 0x14
     c6a:	8f 96       	adiw	r24, 0x2f	; 47
     c6c:	95 99       	sbic	0x12, 5	; 18
     c6e:	91 96       	adiw	r26, 0x21	; 33
     c70:	99 93       	st	Y+, r25
     c72:	89 68       	ori	r24, 0x89	; 137
     c74:	54 53       	subi	r21, 0x34	; 52
     c76:	5d 5d       	subi	r21, 0xDD	; 221
     c78:	6a 7b       	andi	r22, 0xBA	; 186
     c7a:	78 76       	andi	r23, 0x68	; 104
     c7c:	7e 84       	ldd	r7, Y+14	; 0x0e
     c7e:	8a 96       	adiw	r24, 0x2a	; 42
     c80:	91 81       	ldd	r25, Z+1	; 0x01
     c82:	7c 75       	andi	r23, 0x5C	; 92
     c84:	78 7e       	andi	r23, 0xE8	; 232
     c86:	7f 94 9a 99 	call	0x1f3334	; 0x1f3334 <__TEXT_REGION_LENGTH__+0x1eb334>
     c8a:	8d 89       	ldd	r24, Y+21	; 0x15
     c8c:	87 7e       	andi	r24, 0xE7	; 231
     c8e:	7e 7f       	andi	r23, 0xFE	; 254
     c90:	88 87       	std	Y+8, r24	; 0x08
     c92:	8d 7b       	andi	r24, 0xBD	; 189
     c94:	71 6c       	ori	r23, 0xC1	; 193
     c96:	63 65       	ori	r22, 0x53	; 83
     c98:	67 76       	andi	r22, 0x67	; 103
     c9a:	78 74       	andi	r23, 0x48	; 72
     c9c:	6a 5f       	subi	r22, 0xFA	; 250
     c9e:	66 6d       	ori	r22, 0xD6	; 214
     ca0:	77 7d       	andi	r23, 0xD7	; 215
     ca2:	87 85       	ldd	r24, Z+15	; 0x0f
     ca4:	77 7b       	andi	r23, 0xB7	; 183
     ca6:	7b 8c       	ldd	r7, Y+27	; 0x1b
     ca8:	a3 a8       	ldd	r10, Z+51	; 0x33
     caa:	a0 97       	sbiw	r28, 0x20	; 32
     cac:	88 72       	andi	r24, 0x28	; 40
     cae:	69 6d       	ori	r22, 0xD9	; 217
     cb0:	7f 93       	push	r23
     cb2:	a0 a3       	std	Z+32, r26	; 0x20
     cb4:	9c 90       	ld	r9, X
     cb6:	8a 8c       	ldd	r8, Y+26	; 0x1a
     cb8:	8b 92       	.word	0x928b	; ????
     cba:	a2 9c       	mul	r10, r2
     cbc:	8d 85       	ldd	r24, Y+13	; 0x0d
     cbe:	7d 73       	andi	r23, 0x3D	; 61
     cc0:	72 70       	andi	r23, 0x02	; 2
     cc2:	6d 69       	ori	r22, 0x9D	; 157
     cc4:	66 60       	ori	r22, 0x06	; 6
     cc6:	55 56       	subi	r21, 0x65	; 101
     cc8:	5e 6d       	ori	r21, 0xDE	; 222
     cca:	70 6e       	ori	r23, 0xE0	; 224
     ccc:	6a 60       	ori	r22, 0x0A	; 10
     cce:	5a 57       	subi	r21, 0x7A	; 122
     cd0:	5b 67       	ori	r21, 0x7B	; 123
     cd2:	7a 84       	ldd	r7, Y+10	; 0x0a
     cd4:	7e 87       	std	Y+14, r23	; 0x0e
     cd6:	8d 93       	st	X+, r24
     cd8:	a1 a3       	std	Z+33, r26	; 0x21
     cda:	a7 a5       	ldd	r26, Z+47	; 0x2f
     cdc:	a7 a6       	std	Z+47, r10	; 0x2f
     cde:	a5 a4       	ldd	r10, Z+45	; 0x2d
     ce0:	b2 ba       	out	0x12, r11	; 18
     ce2:	b5 af       	std	Z+61, r27	; 0x3d
     ce4:	95 7d       	andi	r25, 0xD5	; 213
     ce6:	6d 5f       	subi	r22, 0xFD	; 253
     ce8:	56 53       	subi	r21, 0x36	; 54
     cea:	58 5e       	subi	r21, 0xE8	; 232
     cec:	60 61       	ori	r22, 0x10	; 16
     cee:	63 6a       	ori	r22, 0xA3	; 163
     cf0:	6e 72       	andi	r22, 0x2E	; 46
     cf2:	73 73       	andi	r23, 0x33	; 51
     cf4:	76 7c       	andi	r23, 0xC6	; 198
     cf6:	83 84       	ldd	r8, Z+11	; 0x0b
     cf8:	8e 8a       	std	Y+22, r8	; 0x16
     cfa:	8b 9a       	sbi	0x11, 3	; 17
     cfc:	9f b0       	in	r9, 0x0f	; 15
     cfe:	b9 b5       	in	r27, 0x29	; 41
     d00:	ac a0       	ldd	r10, Y+36	; 0x24
     d02:	89 78       	andi	r24, 0x89	; 137
     d04:	74 6b       	ori	r23, 0xB4	; 180
     d06:	71 78       	andi	r23, 0x81	; 129
     d08:	6c 63       	ori	r22, 0x3C	; 60
     d0a:	63 62       	ori	r22, 0x23	; 35
     d0c:	65 72       	andi	r22, 0x25	; 37
     d0e:	7b 85       	ldd	r23, Y+11	; 0x0b
     d10:	86 6d       	ori	r24, 0xD6	; 214
     d12:	61 64       	ori	r22, 0x41	; 65
     d14:	6b 6e       	ori	r22, 0xEB	; 235
     d16:	78 7f       	andi	r23, 0xF8	; 248
     d18:	80 7b       	andi	r24, 0xB0	; 176
     d1a:	76 7b       	andi	r23, 0xB6	; 182
     d1c:	81 90       	ld	r8, Z+
     d1e:	8d 89       	ldd	r24, Y+21	; 0x15
     d20:	85 7b       	andi	r24, 0xB5	; 181
     d22:	70 68       	ori	r23, 0x80	; 128
     d24:	62 63       	ori	r22, 0x32	; 50
     d26:	6f 7c       	andi	r22, 0xCF	; 207
     d28:	8c 93       	st	X, r24
     d2a:	91 8a       	std	Z+17, r9	; 0x11
     d2c:	7d 7d       	andi	r23, 0xDD	; 221
     d2e:	8b 9d       	mul	r24, r11
     d30:	a4 9a       	sbi	0x14, 4	; 20
     d32:	99 93       	st	Y+, r25
     d34:	8e 90       	ld	r8, -X
     d36:	90 9c       	mul	r9, r0
     d38:	a1 9f       	mul	r26, r17
     d3a:	9f 8f       	std	Y+31, r25	; 0x1f
     d3c:	86 80       	ldd	r8, Z+6	; 0x06
     d3e:	6c 70       	andi	r22, 0x0C	; 12
     d40:	7e 8b       	std	Y+22, r23	; 0x16
     d42:	8c 83       	std	Y+4, r24	; 0x04
     d44:	73 5c       	subi	r23, 0xC3	; 195
     d46:	50 4c       	sbci	r21, 0xC0	; 192
     d48:	5a 71       	andi	r21, 0x1A	; 26
     d4a:	89 93       	st	Y+, r24
     d4c:	8f 8d       	ldd	r24, Y+31	; 0x1f
     d4e:	8b 86       	std	Y+11, r8	; 0x0b
     d50:	85 85       	ldd	r24, Z+13	; 0x0d
     d52:	81 75       	andi	r24, 0x51	; 81
     d54:	64 59       	subi	r22, 0x94	; 148
     d56:	56 5b       	subi	r21, 0xB6	; 182
     d58:	70 88       	ldd	r7, Z+16	; 0x10
     d5a:	96 9a       	sbi	0x12, 6	; 18
     d5c:	8e 7d       	andi	r24, 0xDE	; 222
     d5e:	67 5e       	subi	r22, 0xE7	; 231
     d60:	5d 66       	ori	r21, 0x6D	; 109
     d62:	84 87       	std	Z+12, r24	; 0x0c
     d64:	83 87       	std	Z+11, r24	; 0x0b
     d66:	7f 80       	ldd	r7, Y+7	; 0x07
     d68:	8a 97       	sbiw	r24, 0x2a	; 42
     d6a:	a0 96       	adiw	r28, 0x20	; 32
     d6c:	8f 91       	pop	r24
     d6e:	86 82       	std	Z+6, r8	; 0x06
     d70:	89 94       	.word	0x9489	; ????
     d72:	91 86       	std	Z+9, r9	; 0x09
     d74:	80 6e       	ori	r24, 0xE0	; 224
     d76:	63 5b       	subi	r22, 0xB3	; 179
     d78:	5d 5e       	subi	r21, 0xED	; 237
     d7a:	63 6a       	ori	r22, 0xA3	; 163
     d7c:	62 63       	ori	r22, 0x32	; 50
     d7e:	60 60       	ori	r22, 0x00	; 0
     d80:	66 74       	andi	r22, 0x46	; 70
     d82:	85 87       	std	Z+13, r24	; 0x0d
     d84:	8e 91       	ld	r24, -X
     d86:	89 87       	std	Y+9, r24	; 0x09
     d88:	8c 91       	ld	r24, X
     d8a:	9a aa       	std	Y+50, r9	; 0x32
     d8c:	bb bb       	out	0x1b, r27	; 27
     d8e:	b9 b9       	out	0x09, r27	; 9
     d90:	b7 b3       	in	r27, 0x17	; 23
     d92:	ab 9f       	mul	r26, r27
     d94:	8c 7f       	andi	r24, 0xFC	; 252
     d96:	6c 53       	subi	r22, 0x3C	; 60
     d98:	41 3d       	cpi	r20, 0xD1	; 209
     d9a:	41 4b       	sbci	r20, 0xB1	; 177
     d9c:	4f 50       	subi	r20, 0x0F	; 15
     d9e:	52 53       	subi	r21, 0x32	; 50
     da0:	5f 6a       	ori	r21, 0xAF	; 175
     da2:	71 87       	std	Z+9, r23	; 0x09
     da4:	93 97       	sbiw	r26, 0x23	; 35
     da6:	94 8b       	std	Z+20, r25	; 0x14
     da8:	90 97       	sbiw	r26, 0x20	; 32
     daa:	a7 af       	std	Z+63, r26	; 0x3f
     dac:	b1 bb       	out	0x11, r27	; 17
     dae:	b8 af       	std	Y+56, r27	; 0x38
     db0:	a9 96       	adiw	r28, 0x29	; 41
     db2:	8a 8a       	std	Y+18, r8	; 0x12
     db4:	84 75       	andi	r24, 0x54	; 84
     db6:	6a 5a       	subi	r22, 0xAA	; 170
     db8:	48 42       	sbci	r20, 0x28	; 40
     dba:	3d 4a       	sbci	r19, 0xAD	; 173
     dbc:	57 5c       	subi	r21, 0xC7	; 199
     dbe:	5d 56       	subi	r21, 0x6D	; 109
     dc0:	5d 61       	ori	r21, 0x1D	; 29
     dc2:	66 81       	ldd	r22, Z+6	; 0x06
     dc4:	9c b2       	in	r9, 0x1c	; 28
     dc6:	be c5       	rjmp	.+2940   	; 0x1944 <__stack+0x1045>
     dc8:	c2 b4       	in	r12, 0x22	; 34
     dca:	ad ad       	ldd	r26, Y+61	; 0x3d
     dcc:	ad b9       	out	0x0d, r26	; 13
     dce:	c5 ad       	ldd	r28, Z+61	; 0x3d
     dd0:	98 85       	ldd	r25, Y+8	; 0x08
     dd2:	6f 63       	ori	r22, 0x3F	; 63
     dd4:	5d 65       	ori	r21, 0x5D	; 93
     dd6:	71 6a       	ori	r23, 0xA1	; 161
     dd8:	63 5a       	subi	r22, 0xA3	; 163
     dda:	50 4d       	sbci	r21, 0xD0	; 208
     ddc:	4f 4e       	sbci	r20, 0xEF	; 239
     dde:	51 61       	ori	r21, 0x11	; 17
     de0:	65 6c       	ori	r22, 0xC5	; 197
     de2:	74 82       	std	Z+4, r7	; 0x04
     de4:	89 97       	sbiw	r24, 0x29	; 41
     de6:	a7 b0       	in	r10, 0x07	; 7
     de8:	b4 ae       	std	Z+60, r11	; 0x3c
     dea:	ae 9f       	mul	r26, r30
     dec:	90 89       	ldd	r25, Z+16	; 0x10
     dee:	82 77       	andi	r24, 0x72	; 114
     df0:	6d 62       	ori	r22, 0x2D	; 45
     df2:	5d 58       	subi	r21, 0x8D	; 141
     df4:	57 60       	ori	r21, 0x07	; 7
     df6:	6d 78       	andi	r22, 0x8D	; 141
     df8:	75 6c       	ori	r23, 0xC5	; 197
     dfa:	64 58       	subi	r22, 0x84	; 132
     dfc:	58 62       	ori	r21, 0x28	; 40
     dfe:	69 7f       	andi	r22, 0xF9	; 249
     e00:	8f a2       	std	Y+39, r8	; 0x27
     e02:	ab a4       	ldd	r10, Y+43	; 0x2b
     e04:	a6 a4       	ldd	r10, Z+46	; 0x2e
     e06:	a4 a2       	std	Z+36, r10	; 0x24
     e08:	a5 a3       	std	Z+37, r26	; 0x25
     e0a:	9c 98       	cbi	0x13, 4	; 19
     e0c:	8c 84       	ldd	r8, Y+12	; 0x0c
     e0e:	76 6b       	ori	r23, 0xB6	; 182
     e10:	6d 65       	ori	r22, 0x5D	; 93
     e12:	6c 74       	andi	r22, 0x4C	; 76
     e14:	77 71       	andi	r23, 0x17	; 23
     e16:	61 58       	subi	r22, 0x81	; 129
     e18:	51 5b       	subi	r21, 0xB1	; 177
     e1a:	62 75       	andi	r22, 0x52	; 82
     e1c:	84 8b       	std	Z+20, r24	; 0x14
     e1e:	8f 89       	ldd	r24, Y+23	; 0x17
     e20:	8b 8c       	ldd	r8, Y+27	; 0x1b
     e22:	97 9d       	mul	r25, r7
     e24:	9c 9b       	sbis	0x13, 4	; 19
     e26:	94 88       	ldd	r9, Z+20	; 0x14
     e28:	80 8d       	ldd	r24, Z+24	; 0x18
     e2a:	a0 a1       	ldd	r26, Z+32	; 0x20
     e2c:	a6 92       	lac	Z, r10
     e2e:	69 4c       	sbci	r22, 0xC9	; 201
     e30:	40 38       	cpi	r20, 0x80	; 128
     e32:	49 72       	andi	r20, 0x29	; 41
     e34:	80 8d       	ldd	r24, Z+24	; 0x18
     e36:	90 8d       	ldd	r25, Z+24	; 0x18
     e38:	83 7e       	andi	r24, 0xE3	; 227
     e3a:	84 88       	ldd	r8, Z+20	; 0x14
     e3c:	92 9e       	mul	r9, r18
     e3e:	a5 88       	ldd	r10, Z+21	; 0x15
     e40:	7d 80       	ldd	r7, Y+5	; 0x05
     e42:	85 8b       	std	Z+21, r24	; 0x15
     e44:	97 a0       	ldd	r9, Z+39	; 0x27
     e46:	a0 9a       	sbi	0x14, 0	; 20
     e48:	85 76       	andi	r24, 0x65	; 101
     e4a:	71 77       	andi	r23, 0x71	; 113
     e4c:	6f 67       	ori	r22, 0x7F	; 127
     e4e:	61 54       	subi	r22, 0x41	; 65
     e50:	44 35       	cpi	r20, 0x54	; 84
     e52:	33 3c       	cpi	r19, 0xC3	; 195
     e54:	49 62       	ori	r20, 0x29	; 41
     e56:	77 8d       	ldd	r23, Z+31	; 0x1f
     e58:	9d a2       	std	Y+37, r9	; 0x25
     e5a:	af b3       	in	r26, 0x1f	; 31
     e5c:	bf bc       	out	0x2f, r11	; 47
     e5e:	b5 a7       	std	Z+45, r27	; 0x2d
     e60:	9d 95 81 76 	jmp	0x66ed02	; 0x66ed02 <__TEXT_REGION_LENGTH__+0x666d02>
     e64:	7b 88       	ldd	r7, Y+19	; 0x13
     e66:	93 9e       	mul	r9, r19
     e68:	9f 9f       	mul	r25, r31
     e6a:	98 8b       	std	Y+16, r25	; 0x10
     e6c:	6e 60       	ori	r22, 0x0E	; 14
     e6e:	5e 5f       	subi	r21, 0xFE	; 254
     e70:	57 59       	subi	r21, 0x97	; 151
     e72:	5c 50       	subi	r21, 0x0C	; 12
     e74:	55 58       	subi	r21, 0x85	; 133
     e76:	63 72       	andi	r22, 0x23	; 35
     e78:	85 8e       	std	Z+29, r8	; 0x1d
     e7a:	8b 8a       	std	Y+19, r8	; 0x13
     e7c:	98 9a       	sbi	0x13, 0	; 19
     e7e:	96 96       	adiw	r26, 0x26	; 38
     e80:	9e 98       	cbi	0x13, 6	; 19
     e82:	86 79       	andi	r24, 0x96	; 150
     e84:	72 78       	andi	r23, 0x82	; 130
     e86:	78 81       	ld	r23, Y
     e88:	87 8c       	ldd	r8, Z+31	; 0x1f
     e8a:	88 7a       	andi	r24, 0xA8	; 168
     e8c:	66 5d       	subi	r22, 0xD6	; 214
     e8e:	4f 52       	subi	r20, 0x2F	; 47
     e90:	6a 79       	andi	r22, 0x9A	; 154
     e92:	77 73       	andi	r23, 0x37	; 55
     e94:	7a 6c       	ori	r23, 0xCA	; 202
     e96:	71 81       	ldd	r23, Z+1	; 0x01
     e98:	98 b1       	in	r25, 0x08	; 8
     e9a:	c1 c7       	rjmp	.+3970   	; 0x1e1e <__stack+0x151f>
     e9c:	b5 a4       	ldd	r11, Z+45	; 0x2d
     e9e:	94 82       	std	Z+4, r9	; 0x04
     ea0:	74 7b       	andi	r23, 0xB4	; 180
     ea2:	81 84       	ldd	r8, Z+9	; 0x09
     ea4:	82 72       	andi	r24, 0x22	; 34
     ea6:	67 5d       	subi	r22, 0xD7	; 215
     ea8:	62 6c       	ori	r22, 0xC2	; 194
     eaa:	71 6c       	ori	r23, 0xC1	; 193
     eac:	5e 5a       	subi	r21, 0xAE	; 174
     eae:	52 50       	subi	r21, 0x02	; 2
     eb0:	62 6d       	ori	r22, 0xD2	; 210
     eb2:	85 8c       	ldd	r8, Z+29	; 0x1d
     eb4:	8a 91       	ld	r24, -Y
     eb6:	94 9a       	sbi	0x12, 4	; 18
     eb8:	aa c7       	rjmp	.+3924   	; 0x1e0e <__stack+0x150f>
     eba:	c5 cd       	rjmp	.-1142   	; 0xa46 <__stack+0x147>
     ebc:	d3 bf       	out	0x33, r29	; 51
     ebe:	a3 8e       	std	Z+27, r10	; 0x1b
     ec0:	74 63       	ori	r23, 0x34	; 52
     ec2:	6a 70       	andi	r22, 0x0A	; 10
     ec4:	72 76       	andi	r23, 0x62	; 98
     ec6:	7b 6f       	ori	r23, 0xFB	; 251
     ec8:	58 49       	sbci	r21, 0x98	; 152
     eca:	45 46       	sbci	r20, 0x65	; 101
     ecc:	52 55       	subi	r21, 0x52	; 82
     ece:	5b 5a       	subi	r21, 0xAB	; 171
     ed0:	53 5c       	subi	r21, 0xC3	; 195
     ed2:	5e 5f       	subi	r21, 0xFE	; 254
     ed4:	75 8f       	std	Z+29, r23	; 0x1d
     ed6:	91 9f       	mul	r25, r17
     ed8:	9a 98       	cbi	0x13, 2	; 19
     eda:	a2 b0       	in	r10, 0x02	; 2
     edc:	b7 ba       	out	0x17, r11	; 23
     ede:	c8 be       	out	0x38, r12	; 56
     ee0:	b0 a5       	ldd	r27, Z+40	; 0x28
     ee2:	95 75       	andi	r25, 0x55	; 85
     ee4:	6c 5f       	subi	r22, 0xFC	; 252
     ee6:	55 4b       	sbci	r21, 0xB5	; 181
     ee8:	42 4b       	sbci	r20, 0xB2	; 178
     eea:	52 61       	ori	r21, 0x12	; 18
     eec:	67 67       	ori	r22, 0x77	; 119
     eee:	7b 8f       	std	Y+27, r23	; 0x1b
     ef0:	92 87       	std	Z+10, r25	; 0x0a
     ef2:	83 82       	std	Z+3, r8	; 0x03
     ef4:	74 7c       	andi	r23, 0xC4	; 196
     ef6:	88 a2       	std	Y+32, r8	; 0x20
     ef8:	b4 be       	out	0x34, r11	; 52
     efa:	b8 a2       	std	Y+32, r11	; 0x20
     efc:	a5 a6       	std	Z+45, r10	; 0x2d
     efe:	aa b5       	in	r26, 0x2a	; 42
     f00:	c7 b2       	in	r12, 0x17	; 23
     f02:	90 82       	st	Z, r9
     f04:	68 4a       	sbci	r22, 0xA8	; 168
     f06:	4e 4d       	sbci	r20, 0xDE	; 222
     f08:	44 4b       	sbci	r20, 0xB4	; 180
     f0a:	4c 50       	subi	r20, 0x0C	; 12
     f0c:	50 5d       	subi	r21, 0xD0	; 208
     f0e:	6c 7a       	andi	r22, 0xAC	; 172
     f10:	81 7b       	andi	r24, 0xB1	; 177
     f12:	70 6d       	ori	r23, 0xD0	; 208
     f14:	66 67       	ori	r22, 0x76	; 118
     f16:	74 8f       	std	Z+28, r23	; 0x1c
     f18:	a8 a8       	ldd	r10, Y+48	; 0x30
     f1a:	9c 93       	st	X, r25
     f1c:	99 96       	adiw	r26, 0x29	; 41
     f1e:	9d ac       	ldd	r9, Y+61	; 0x3d
     f20:	b3 b5       	in	r27, 0x23	; 35
     f22:	ae 99       	sbic	0x15, 6	; 21
     f24:	80 71       	andi	r24, 0x10	; 16
     f26:	6c 61       	ori	r22, 0x1C	; 28
     f28:	5c 65       	ori	r21, 0x5C	; 92
     f2a:	63 69       	ori	r22, 0x93	; 147
     f2c:	71 69       	ori	r23, 0x91	; 145
     f2e:	73 7b       	andi	r23, 0xB3	; 179
     f30:	75 76       	andi	r23, 0x65	; 101
     f32:	78 76       	andi	r23, 0x68	; 104
     f34:	69 66       	ori	r22, 0x69	; 105
     f36:	65 6c       	ori	r22, 0xC5	; 197
     f38:	74 73       	andi	r23, 0x34	; 52
     f3a:	73 6e       	ori	r23, 0xE3	; 227
     f3c:	6e 7a       	andi	r22, 0xAE	; 174
     f3e:	7a 84       	ldd	r7, Y+10	; 0x0a
     f40:	99 a9       	ldd	r25, Y+49	; 0x31
     f42:	a1 8b       	std	Z+17, r26	; 0x11
     f44:	82 7a       	andi	r24, 0xA2	; 162
     f46:	6c 64       	ori	r22, 0x4C	; 76
     f48:	76 86       	std	Z+14, r7	; 0x0e
     f4a:	a2 ab       	std	Z+50, r26	; 0x32
     f4c:	ab a9       	ldd	r26, Y+51	; 0x33
     f4e:	9d 90       	ld	r9, X+
     f50:	78 76       	andi	r23, 0x68	; 104
     f52:	70 75       	andi	r23, 0x50	; 80
     f54:	75 71       	andi	r23, 0x15	; 21
     f56:	76 69       	ori	r23, 0x96	; 150
     f58:	6d 79       	andi	r22, 0x9D	; 157
     f5a:	7a 72       	andi	r23, 0x2A	; 42
     f5c:	77 82       	std	Z+7, r7	; 0x07
     f5e:	86 8b       	std	Z+22, r24	; 0x16
     f60:	92 96       	adiw	r26, 0x22	; 34
     f62:	9a af       	std	Y+58, r25	; 0x3a
     f64:	b2 aa       	std	Z+50, r11	; 0x32
     f66:	a2 91       	ld	r26, -Z
     f68:	89 7f       	andi	r24, 0xF9	; 249
     f6a:	74 71       	andi	r23, 0x14	; 20
     f6c:	72 79       	andi	r23, 0x92	; 146
     f6e:	6f 5e       	subi	r22, 0xEF	; 239
     f70:	53 5a       	subi	r21, 0xA3	; 163
     f72:	6c 77       	andi	r22, 0x7C	; 124
     f74:	6e 70       	andi	r22, 0x0E	; 14
     f76:	78 5d       	subi	r23, 0xD8	; 216
     f78:	54 55       	subi	r21, 0x54	; 84
     f7a:	6a 76       	andi	r22, 0x6A	; 106
     f7c:	7f 88       	ldd	r7, Y+23	; 0x17
     f7e:	8e 95 8f 9c 	call	0x61391e	; 0x61391e <__TEXT_REGION_LENGTH__+0x60b91e>
     f82:	9c a2       	std	Y+36, r9	; 0x24
     f84:	ab a9       	ldd	r26, Y+51	; 0x33
     f86:	9b 90       	.word	0x909b	; ????
     f88:	92 77       	andi	r25, 0x72	; 114
     f8a:	57 64       	ori	r21, 0x47	; 71
     f8c:	6f 70       	andi	r22, 0x0F	; 15
     f8e:	7c 7e       	andi	r23, 0xEC	; 236
     f90:	78 79       	andi	r23, 0x98	; 152
     f92:	7d 6a       	ori	r23, 0xAD	; 173
     f94:	66 7c       	andi	r22, 0xC6	; 198
     f96:	86 7f       	andi	r24, 0xF6	; 246
     f98:	85 85       	ldd	r24, Z+13	; 0x0d
     f9a:	86 87       	std	Z+14, r24	; 0x0e
     f9c:	81 84       	ldd	r8, Z+9	; 0x09
     f9e:	87 a3       	std	Z+39, r24	; 0x27
     fa0:	b3 ac       	ldd	r11, Z+59	; 0x3b
     fa2:	af a7       	std	Y+47, r26	; 0x2f
     fa4:	9d 90       	ld	r9, X+
     fa6:	8b 86       	std	Y+11, r8	; 0x0b
     fa8:	74 69       	ori	r23, 0x94	; 148
     faa:	55 3d       	cpi	r21, 0xD5	; 213
     fac:	32 40       	sbci	r19, 0x02	; 2
     fae:	48 59       	subi	r20, 0x98	; 152
     fb0:	6c 6a       	ori	r22, 0xAC	; 172
     fb2:	66 5e       	subi	r22, 0xE6	; 230
     fb4:	64 63       	ori	r22, 0x34	; 52
     fb6:	6e 93       	st	-X, r22
     fb8:	a7 b0       	in	r10, 0x07	; 7
     fba:	b7 af       	std	Z+63, r27	; 0x3f
     fbc:	95 87       	std	Z+13, r25	; 0x0d
     fbe:	8d 99       	sbic	0x11, 5	; 17
     fc0:	a3 a7       	std	Z+43, r26	; 0x2b
     fc2:	a5 98       	cbi	0x14, 5	; 20
     fc4:	89 7c       	andi	r24, 0xC9	; 201
     fc6:	70 71       	andi	r23, 0x10	; 16
     fc8:	81 85       	ldd	r24, Z+9	; 0x09
     fca:	7f 78       	andi	r23, 0x8F	; 143
     fcc:	6f 64       	ori	r22, 0x4F	; 79
     fce:	5d 5d       	subi	r21, 0xDD	; 221
     fd0:	62 72       	andi	r22, 0x22	; 34
     fd2:	79 6f       	ori	r23, 0xF9	; 249
     fd4:	67 66       	ori	r22, 0x67	; 103
     fd6:	71 84       	ldd	r7, Z+9	; 0x09
     fd8:	8d 99       	sbic	0x11, 5	; 17
     fda:	a6 a8       	ldd	r10, Z+54	; 0x36
     fdc:	95 88       	ldd	r9, Z+21	; 0x15
     fde:	85 86       	std	Z+13, r8	; 0x0d
     fe0:	8c 8d       	ldd	r24, Y+28	; 0x1c
     fe2:	87 86       	std	Z+15, r8	; 0x0f
     fe4:	7f 62       	ori	r23, 0x2F	; 47
     fe6:	5e 64       	ori	r21, 0x4E	; 78
     fe8:	70 80       	ld	r7, Z
     fea:	84 85       	ldd	r24, Z+12	; 0x0c
     fec:	83 78       	andi	r24, 0x83	; 131
     fee:	72 72       	andi	r23, 0x22	; 34
     ff0:	80 94       	com	r8
     ff2:	8f 88       	ldd	r8, Y+23	; 0x17
     ff4:	78 58       	subi	r23, 0x88	; 136
     ff6:	46 47       	sbci	r20, 0x76	; 118
     ff8:	57 84       	ldd	r5, Z+15	; 0x0f
     ffa:	9b ab       	std	Y+51, r25	; 0x33
     ffc:	b5 ab       	std	Z+53, r27	; 0x35
     ffe:	a7 a2       	std	Z+39, r10	; 0x27
    1000:	9d 8f       	std	Y+29, r25	; 0x1d
    1002:	93 94       	inc	r9
    1004:	94 91       	lpm	r25, Z
    1006:	8f 9a       	sbi	0x11, 7	; 17
    1008:	a3 a5       	ldd	r26, Z+43	; 0x2b
    100a:	8f 89       	ldd	r24, Y+23	; 0x17
    100c:	7f 74       	andi	r23, 0x4F	; 79
    100e:	6c 63       	ori	r22, 0x3C	; 60
    1010:	6e 73       	andi	r22, 0x3E	; 62
    1012:	6c 61       	ori	r22, 0x1C	; 28
    1014:	5c 59       	subi	r21, 0x9C	; 156
    1016:	54 4b       	sbci	r21, 0xB4	; 180
    1018:	46 51       	subi	r20, 0x16	; 22
    101a:	58 59       	subi	r21, 0x98	; 152
    101c:	5d 5c       	subi	r21, 0xCD	; 205
    101e:	78 84       	ldd	r7, Y+8	; 0x08
    1020:	87 99       	sbic	0x10, 7	; 16
    1022:	9c a0       	ldd	r9, Y+36	; 0x24
    1024:	a2 9b       	sbis	0x14, 2	; 20
    1026:	9d aa       	std	Y+53, r9	; 0x35
    1028:	a8 a7       	std	Y+40, r26	; 0x28
    102a:	9c 9e       	mul	r9, r28
    102c:	96 8a       	std	Z+22, r9	; 0x16
    102e:	92 94       	swap	r9
    1030:	8d 74       	andi	r24, 0x4D	; 77
    1032:	64 6a       	ori	r22, 0xA4	; 164
    1034:	7b 7e       	andi	r23, 0xEB	; 235
    1036:	81 85       	ldd	r24, Z+9	; 0x09
    1038:	82 81       	ldd	r24, Z+2	; 0x02
    103a:	70 5b       	subi	r23, 0xB0	; 176
    103c:	6a 80       	ldd	r6, Y+2	; 0x02
    103e:	8e 91       	ld	r24, -X
    1040:	8d 8b       	std	Y+21, r24	; 0x15
    1042:	8c 83       	std	Y+4, r24	; 0x04
    1044:	72 73       	andi	r23, 0x32	; 50
    1046:	86 99       	sbic	0x10, 6	; 16
    1048:	8f 88       	ldd	r8, Y+23	; 0x17
    104a:	81 6c       	ori	r24, 0xC1	; 193
    104c:	65 60       	ori	r22, 0x05	; 5
    104e:	61 5f       	subi	r22, 0xF1	; 241
    1050:	5d 65       	ori	r21, 0x5D	; 93
    1052:	5b 54       	subi	r21, 0x4B	; 75
    1054:	4f 54       	subi	r20, 0x4F	; 79
    1056:	53 60       	ori	r21, 0x03	; 3
    1058:	6f 78       	andi	r22, 0x8F	; 143
    105a:	81 83       	std	Z+1, r24	; 0x01
    105c:	8b 94       	des	8
    105e:	a1 ad       	ldd	r26, Z+57	; 0x39
    1060:	b7 c3       	rjmp	.+1902   	; 0x17d0 <__stack+0xed1>
    1062:	cc b2       	in	r12, 0x1c	; 28
    1064:	9f 92       	push	r9
    1066:	86 87       	std	Z+14, r24	; 0x0e
    1068:	7b 75       	andi	r23, 0x5B	; 91
    106a:	7a 82       	std	Y+2, r7	; 0x02
    106c:	76 63       	ori	r23, 0x36	; 54
    106e:	64 71       	andi	r22, 0x14	; 20
    1070:	72 67       	ori	r23, 0x72	; 114
    1072:	75 85       	ldd	r23, Z+13	; 0x0d
    1074:	7f 7c       	andi	r23, 0xCF	; 207
    1076:	76 7e       	andi	r23, 0xE6	; 230
    1078:	8f a2       	std	Y+39, r8	; 0x27
    107a:	a6 a3       	std	Z+38, r26	; 0x26
    107c:	ab ac       	ldd	r10, Y+59	; 0x3b
    107e:	8b 75       	andi	r24, 0x5B	; 91
    1080:	8a 93       	st	-Y, r24
    1082:	97 98       	cbi	0x12, 7	; 18
    1084:	95 86       	std	Z+13, r9	; 0x0d
    1086:	6f 4d       	sbci	r22, 0xDF	; 223
    1088:	34 31       	cpi	r19, 0x14	; 20
    108a:	40 50       	subi	r20, 0x00	; 0
    108c:	4e 5a       	subi	r20, 0xAE	; 174
    108e:	51 49       	sbci	r21, 0x91	; 145
    1090:	51 5b       	subi	r21, 0xB1	; 177
    1092:	7e 9b       	sbis	0x0f, 6	; 15
    1094:	b2 bd       	out	0x22, r27	; 34
    1096:	ab a5       	ldd	r26, Y+43	; 0x2b
    1098:	a0 9b       	sbis	0x14, 0	; 20
    109a:	a8 b4       	in	r10, 0x28	; 40
    109c:	b2 ad       	ldd	r27, Z+58	; 0x3a
    109e:	a0 95       	com	r26
    10a0:	92 82       	std	Z+2, r9	; 0x02
    10a2:	80 89       	ldd	r24, Z+16	; 0x10
    10a4:	8b 8e       	std	Y+27, r8	; 0x1b
    10a6:	85 6c       	ori	r24, 0xC5	; 197
    10a8:	5a 52       	subi	r21, 0x2A	; 42
    10aa:	4f 4a       	sbci	r20, 0xAF	; 175
    10ac:	4b 54       	subi	r20, 0x4B	; 75
    10ae:	56 57       	subi	r21, 0x76	; 118
    10b0:	49 4b       	sbci	r20, 0xB9	; 185
    10b2:	5d 86       	std	Y+13, r5	; 0x0d
    10b4:	99 a5       	ldd	r25, Y+41	; 0x29
    10b6:	b8 a8       	ldd	r11, Y+48	; 0x30
    10b8:	a0 87       	std	Z+8, r26	; 0x08
    10ba:	81 8f       	std	Z+25, r24	; 0x19
    10bc:	9a a7       	std	Y+42, r25	; 0x2a
    10be:	aa a3       	std	Y+34, r26	; 0x22
    10c0:	91 84       	ldd	r9, Z+9	; 0x09
    10c2:	77 7d       	andi	r23, 0xD7	; 215
    10c4:	83 7a       	andi	r24, 0xA3	; 163
    10c6:	7d 7a       	andi	r23, 0xAD	; 173
    10c8:	6c 57       	subi	r22, 0x7C	; 124
    10ca:	47 47       	sbci	r20, 0x77	; 119
    10cc:	51 67       	ori	r21, 0x71	; 113
    10ce:	7a 87       	std	Y+10, r23	; 0x0a
    10d0:	90 9c       	mul	r9, r0
    10d2:	92 81       	ldd	r25, Z+2	; 0x02
    10d4:	82 80       	ldd	r8, Z+2	; 0x02
    10d6:	7f 84       	ldd	r7, Y+15	; 0x0f
    10d8:	84 86       	std	Z+12, r8	; 0x0c
    10da:	90 a4       	ldd	r9, Z+40	; 0x28
    10dc:	ad a6       	std	Y+45, r10	; 0x2d
    10de:	b6 af       	std	Z+62, r27	; 0x3e
    10e0:	9f 96       	adiw	r26, 0x2f	; 47
    10e2:	8c 85       	ldd	r24, Y+12	; 0x0c
    10e4:	84 83       	std	Z+4, r24	; 0x04
    10e6:	76 76       	andi	r23, 0x66	; 102
    10e8:	74 7b       	andi	r23, 0xB4	; 180
    10ea:	74 69       	ori	r23, 0x94	; 148
    10ec:	76 6b       	ori	r23, 0xB6	; 182
    10ee:	6b 6d       	ori	r22, 0xDB	; 219
    10f0:	71 7b       	andi	r23, 0xB1	; 177
    10f2:	76 75       	andi	r23, 0x56	; 86
    10f4:	6f 72       	andi	r22, 0x2F	; 47
    10f6:	6f 69       	ori	r22, 0x9F	; 159
    10f8:	63 69       	ori	r22, 0x93	; 147
    10fa:	70 61       	ori	r23, 0x10	; 16
    10fc:	67 6e       	ori	r22, 0xE7	; 231
    10fe:	6b 71       	andi	r22, 0x1B	; 27
    1100:	76 6b       	ori	r23, 0xB6	; 182
    1102:	67 79       	andi	r22, 0x97	; 151
    1104:	77 75       	andi	r23, 0x57	; 87
    1106:	84 8d       	ldd	r24, Z+28	; 0x1c
    1108:	7f 7d       	andi	r23, 0xDF	; 223
    110a:	8b 94       	des	8
    110c:	9f 9b       	sbis	0x13, 7	; 19
    110e:	8d 86       	std	Y+13, r8	; 0x0d
    1110:	87 8a       	std	Z+23, r8	; 0x17
    1112:	92 95       	swap	r25
    1114:	a1 ba       	out	0x11, r10	; 17
    1116:	b3 9a       	sbi	0x16, 3	; 22
    1118:	9c 9d       	mul	r25, r12
    111a:	94 8f       	std	Z+28, r25	; 0x1c
    111c:	8a 8b       	std	Y+18, r24	; 0x12
    111e:	8d 81       	ldd	r24, Y+5	; 0x05
    1120:	7a 88       	ldd	r7, Y+18	; 0x12
    1122:	92 8c       	ldd	r9, Z+26	; 0x1a
    1124:	7e 80       	ldd	r7, Y+6	; 0x06
    1126:	83 6f       	ori	r24, 0xF3	; 243
    1128:	6a 62       	ori	r22, 0x2A	; 42
    112a:	53 60       	ori	r21, 0x03	; 3
    112c:	55 4f       	sbci	r21, 0xF5	; 245
    112e:	5f 60       	ori	r21, 0x0F	; 15
    1130:	52 38       	cpi	r21, 0x82	; 130
    1132:	37 38       	cpi	r19, 0x87	; 135
    1134:	43 53       	subi	r20, 0x33	; 51
    1136:	68 84       	ldd	r6, Y+8	; 0x08
    1138:	98 b0       	in	r9, 0x08	; 8
    113a:	a7 ad       	ldd	r26, Z+63	; 0x3f
    113c:	b9 b6       	in	r11, 0x39	; 57
    113e:	a5 87       	std	Z+13, r26	; 0x0d
    1140:	85 85       	ldd	r24, Z+13	; 0x0d
    1142:	7d 7d       	andi	r23, 0xDD	; 221
    1144:	8e a7       	std	Y+46, r24	; 0x2e
    1146:	a8 95       	wdr
    1148:	82 82       	std	Z+2, r8	; 0x02
    114a:	8e 92       	st	-X, r8
    114c:	8e 8f       	std	Y+30, r24	; 0x1e
    114e:	9f 8e       	std	Y+31, r9	; 0x1f
    1150:	6f 5b       	subi	r22, 0xBF	; 191
    1152:	56 59       	subi	r21, 0x96	; 150
    1154:	63 8a       	std	Z+19, r6	; 0x13
    1156:	ac c0       	rjmp	.+344    	; 0x12b0 <__stack+0x9b1>
    1158:	bb a8       	ldd	r11, Y+51	; 0x33
    115a:	7d 6d       	ori	r23, 0xDD	; 221
    115c:	7e 77       	andi	r23, 0x7E	; 126
    115e:	74 85       	ldd	r23, Z+12	; 0x0c
    1160:	97 8c       	ldd	r9, Z+31	; 0x1f
    1162:	81 7d       	andi	r24, 0xD1	; 209
    1164:	7b 77       	andi	r23, 0x7B	; 123
    1166:	75 65       	ori	r23, 0x55	; 85
    1168:	50 4f       	sbci	r21, 0xF0	; 240
    116a:	4a 3a       	cpi	r20, 0xAA	; 170
    116c:	30 4e       	sbci	r19, 0xE0	; 224
    116e:	64 6b       	ori	r22, 0xB4	; 180
    1170:	71 6d       	ori	r23, 0xD1	; 209
    1172:	6d 77       	andi	r22, 0x7D	; 125
    1174:	7f 7e       	andi	r23, 0xEF	; 239
    1176:	91 b0       	in	r9, 0x01	; 1
    1178:	af 9f       	mul	r26, r31
    117a:	8f 98       	cbi	0x11, 7	; 17
    117c:	9b 96       	adiw	r26, 0x2b	; 43
    117e:	b2 bc       	out	0x22, r11	; 34
    1180:	b2 9f       	mul	r27, r18
    1182:	86 62       	ori	r24, 0x26	; 38
    1184:	5d 74       	andi	r21, 0x4D	; 77
    1186:	84 94       	.word	0x9484	; ????
    1188:	9f a8       	ldd	r9, Y+55	; 0x37
    118a:	96 76       	andi	r25, 0x66	; 102
    118c:	67 67       	ori	r22, 0x77	; 119
    118e:	70 81       	ld	r23, Z
    1190:	87 84       	ldd	r8, Z+15	; 0x0f
    1192:	8d 90       	ld	r8, X+
    1194:	7b 7c       	andi	r23, 0xCB	; 203
    1196:	84 83       	std	Z+4, r24	; 0x04
    1198:	79 72       	andi	r23, 0x29	; 41
    119a:	7b 6e       	ori	r23, 0xEB	; 235
    119c:	61 67       	ori	r22, 0x71	; 113
    119e:	76 7f       	andi	r23, 0xF6	; 246
    11a0:	85 7d       	andi	r24, 0xD5	; 213
    11a2:	6a 62       	ori	r22, 0x2A	; 42
    11a4:	56 3c       	cpi	r21, 0xC6	; 198
    11a6:	32 51       	subi	r19, 0x12	; 18
    11a8:	68 6c       	ori	r22, 0xC8	; 200
    11aa:	79 94       	.word	0x9479	; ????
    11ac:	9a 90       	ld	r9, -Y
    11ae:	93 92       	.word	0x9293	; ????
    11b0:	90 9b       	sbis	0x12, 0	; 18
    11b2:	94 81       	ldd	r25, Z+4	; 0x04
    11b4:	80 89       	ldd	r24, Z+16	; 0x10
    11b6:	8a 8f       	std	Y+26, r24	; 0x1a
    11b8:	b6 b9       	out	0x06, r27	; 6
    11ba:	b5 b0       	in	r11, 0x05	; 5
    11bc:	a3 9d       	mul	r26, r3
    11be:	96 99       	sbic	0x12, 6	; 18
    11c0:	9c 97       	sbiw	r26, 0x2c	; 44
    11c2:	8b 86       	std	Y+11, r8	; 0x0b
    11c4:	68 59       	subi	r22, 0x98	; 152
    11c6:	59 5c       	subi	r21, 0xC9	; 201
    11c8:	68 6a       	ori	r22, 0xA8	; 168
    11ca:	72 76       	andi	r23, 0x62	; 98
    11cc:	6f 6c       	ori	r22, 0xCF	; 207
    11ce:	61 5f       	subi	r22, 0xF1	; 241
    11d0:	7a 80       	ldd	r7, Y+2	; 0x02
    11d2:	7c 74       	andi	r23, 0x4C	; 76
    11d4:	6e 6b       	ori	r22, 0xBE	; 190
    11d6:	66 60       	ori	r22, 0x06	; 6
    11d8:	6d 74       	andi	r22, 0x4D	; 77
    11da:	6e 67       	ori	r22, 0x7E	; 126
    11dc:	59 60       	ori	r21, 0x09	; 9
    11de:	6c 77       	andi	r22, 0x7C	; 124
    11e0:	89 97       	sbiw	r24, 0x29	; 41
    11e2:	9e 9f       	mul	r25, r30
    11e4:	8c 8d       	ldd	r24, Y+28	; 0x1c
    11e6:	97 88       	ldd	r9, Z+23	; 0x17
    11e8:	81 7a       	andi	r24, 0xA1	; 161
    11ea:	73 7f       	andi	r23, 0xF3	; 243
    11ec:	83 7b       	andi	r24, 0xB3	; 179
    11ee:	81 94       	neg	r8
    11f0:	a0 99       	sbic	0x14, 0	; 20
    11f2:	9d b0       	in	r9, 0x0d	; 13
    11f4:	b7 b5       	in	r27, 0x27	; 39
    11f6:	b0 9e       	mul	r11, r16
    11f8:	9c a3       	std	Y+36, r25	; 0x24
    11fa:	96 83       	std	Z+6, r25	; 0x06
    11fc:	80 81       	ld	r24, Z
    11fe:	6e 61       	ori	r22, 0x1E	; 30
    1200:	63 66       	ori	r22, 0x63	; 99
    1202:	6b 73       	andi	r22, 0x3B	; 59
    1204:	7c 76       	andi	r23, 0x6C	; 108
    1206:	7a 73       	andi	r23, 0x3A	; 58
    1208:	57 4e       	sbci	r21, 0xE7	; 231
    120a:	50 4b       	sbci	r21, 0xB0	; 176
    120c:	42 51       	subi	r20, 0x12	; 18
    120e:	5f 60       	ori	r21, 0x0F	; 15
    1210:	5d 65       	ori	r21, 0x5D	; 93
    1212:	74 7f       	andi	r23, 0xF4	; 244
    1214:	9a ae       	std	Y+58, r9	; 0x3a
    1216:	ae a6       	std	Y+46, r10	; 0x2e
    1218:	aa a5       	ldd	r26, Y+42	; 0x2a
    121a:	91 8f       	std	Z+25, r25	; 0x19
    121c:	a4 a5       	ldd	r26, Z+44	; 0x2c
    121e:	9e a3       	std	Y+38, r25	; 0x26
    1220:	9a 8c       	ldd	r9, Y+26	; 0x1a
    1222:	81 74       	andi	r24, 0x41	; 65
    1224:	76 86       	std	Z+14, r7	; 0x0e
    1226:	91 91       	ld	r25, Z+
    1228:	93 9d       	mul	r25, r3
    122a:	92 73       	andi	r25, 0x32	; 50
    122c:	6d 6f       	ori	r22, 0xFD	; 253
    122e:	67 59       	subi	r22, 0x97	; 151
    1230:	55 4b       	sbci	r21, 0xB5	; 181
    1232:	43 51       	subi	r20, 0x13	; 19
    1234:	64 76       	andi	r22, 0x64	; 100
    1236:	90 b2       	in	r9, 0x10	; 16
    1238:	af 9b       	sbis	0x15, 7	; 21
    123a:	86 74       	andi	r24, 0x46	; 70
    123c:	69 77       	andi	r22, 0x79	; 121
    123e:	7d 81       	ldd	r23, Y+5	; 0x05
    1240:	89 80       	ldd	r8, Y+1	; 0x01
    1242:	69 48       	sbci	r22, 0x89	; 137
    1244:	53 65       	ori	r21, 0x53	; 83
    1246:	61 73       	andi	r22, 0x31	; 49
    1248:	90 94       	com	r9
    124a:	98 98       	cbi	0x13, 0	; 19
    124c:	88 82       	st	Y, r8
    124e:	88 86       	std	Y+8, r8	; 0x08
    1250:	77 7c       	andi	r23, 0xC7	; 199
    1252:	96 8e       	std	Z+30, r9	; 0x1e
    1254:	77 82       	std	Z+7, r7	; 0x07
    1256:	90 94       	com	r9
    1258:	9c 9b       	sbis	0x13, 4	; 19
    125a:	9a a9       	ldd	r25, Y+50	; 0x32
    125c:	b1 ad       	ldd	r27, Z+57	; 0x39
    125e:	9a 97       	sbiw	r26, 0x2a	; 42
    1260:	94 6b       	ori	r25, 0xB4	; 180
    1262:	58 63       	ori	r21, 0x38	; 56
    1264:	71 88       	ldd	r7, Z+17	; 0x11
    1266:	99 9b       	sbis	0x13, 1	; 19
    1268:	99 95       	.word	0x9599	; ????
    126a:	87 7a       	andi	r24, 0xA7	; 167
    126c:	71 7b       	andi	r23, 0xB1	; 177
    126e:	7b 6e       	ori	r23, 0xEB	; 235
    1270:	6b 5b       	subi	r22, 0xBB	; 187
    1272:	55 57       	subi	r21, 0x75	; 117
    1274:	50 49       	sbci	r21, 0x90	; 144
    1276:	53 60       	ori	r21, 0x03	; 3
    1278:	66 6b       	ori	r22, 0xB6	; 182
    127a:	80 92 8d 85 	sts	0x858D, r8	; 0x80858d <__bss_end+0x8489>
    127e:	6d 55       	subi	r22, 0x5D	; 93
    1280:	55 53       	subi	r21, 0x35	; 53
    1282:	53 69       	ori	r21, 0x93	; 147
    1284:	8e a6       	std	Y+46, r8	; 0x2e
    1286:	a9 a2       	std	Y+33, r10	; 0x21
    1288:	9e 9c       	mul	r9, r14
    128a:	93 8e       	std	Z+27, r9	; 0x1b
    128c:	8b 98       	cbi	0x11, 3	; 17
    128e:	94 7c       	andi	r25, 0xC4	; 196
    1290:	6a 68       	ori	r22, 0x8A	; 138
    1292:	70 7c       	andi	r23, 0xC0	; 192
    1294:	87 a0       	ldd	r8, Z+39	; 0x27
    1296:	bf c1       	rjmp	.+894    	; 0x1616 <__stack+0xd17>
    1298:	b6 a9       	ldd	r27, Z+54	; 0x36
    129a:	aa ae       	std	Y+58, r10	; 0x3a
    129c:	9f 82       	std	Y+7, r9	; 0x07
    129e:	76 75       	andi	r23, 0x56	; 86
    12a0:	5f 55       	subi	r21, 0x5F	; 95
    12a2:	5e 7b       	andi	r21, 0xBE	; 190
    12a4:	90 85       	ldd	r25, Z+8	; 0x08
    12a6:	84 7d       	andi	r24, 0xD4	; 212
    12a8:	82 86       	std	Z+10, r8	; 0x0a
    12aa:	7a 75       	andi	r23, 0x5A	; 90
    12ac:	71 68       	ori	r23, 0x81	; 129
    12ae:	4d 3d       	cpi	r20, 0xDD	; 221
    12b0:	39 49       	sbci	r19, 0x99	; 153
    12b2:	5b 5c       	subi	r21, 0xCB	; 203
    12b4:	60 62       	ori	r22, 0x20	; 32
    12b6:	71 71       	andi	r23, 0x11	; 17
    12b8:	70 91 af c3 	lds	r23, 0xC3AF	; 0x80c3af <__bss_end+0xc2ab>
    12bc:	c4 c9       	rjmp	.-3192   	; 0x646 <__EEPROM_REGION_LENGTH__+0x246>
    12be:	bd ad       	ldd	r27, Y+61	; 0x3d
    12c0:	91 73       	andi	r25, 0x31	; 49
    12c2:	65 68       	ori	r22, 0x85	; 133
    12c4:	83 80       	ldd	r8, Z+3	; 0x03
    12c6:	7f 91       	pop	r23
    12c8:	9c 98       	cbi	0x13, 4	; 19
    12ca:	95 8a       	std	Z+21, r9	; 0x15
    12cc:	78 77       	andi	r23, 0x78	; 120
    12ce:	6e 4f       	sbci	r22, 0xFE	; 254
    12d0:	40 55       	subi	r20, 0x50	; 80
    12d2:	73 7e       	andi	r23, 0xE3	; 227
    12d4:	84 99       	sbic	0x10, 4	; 16
    12d6:	a7 a9       	ldd	r26, Z+55	; 0x37
    12d8:	98 85       	ldd	r25, Y+8	; 0x08
    12da:	87 90       	elpm	r8, Z+
    12dc:	8a 7b       	andi	r24, 0xBA	; 186
    12de:	79 84       	ldd	r7, Y+9	; 0x09
    12e0:	87 77       	andi	r24, 0x77	; 119
    12e2:	7c 7d       	andi	r23, 0xDC	; 220
    12e4:	6f 71       	andi	r22, 0x1F	; 31
    12e6:	71 64       	ori	r23, 0x41	; 65
    12e8:	54 4f       	sbci	r21, 0xF4	; 244
    12ea:	4c 53       	subi	r20, 0x3C	; 60
    12ec:	60 6b       	ori	r22, 0xB0	; 176
    12ee:	70 72       	andi	r23, 0x20	; 32
    12f0:	62 4d       	sbci	r22, 0xD2	; 210
    12f2:	56 6c       	ori	r21, 0xC6	; 198
    12f4:	87 99       	sbic	0x10, 7	; 16
    12f6:	a2 af       	std	Z+58, r26	; 0x3a
    12f8:	b9 aa       	std	Y+49, r11	; 0x31
    12fa:	90 95       	com	r25
    12fc:	b0 b7       	in	r27, 0x30	; 48
    12fe:	ad a9       	ldd	r26, Y+53	; 0x35
    1300:	a5 9a       	sbi	0x14, 5	; 20
    1302:	89 7c       	andi	r24, 0xC9	; 201
    1304:	7f 96       	adiw	r30, 0x1f	; 31
    1306:	a9 ab       	std	Y+49, r26	; 0x31
    1308:	a2 a3       	std	Z+34, r26	; 0x22
    130a:	99 81       	ldd	r25, Y+1	; 0x01
    130c:	71 75       	andi	r23, 0x51	; 81
    130e:	7a 77       	andi	r23, 0x7A	; 122
    1310:	66 4b       	sbci	r22, 0xB6	; 182
    1312:	48 4c       	sbci	r20, 0xC8	; 200
    1314:	5b 5e       	subi	r21, 0xEB	; 235
    1316:	61 79       	andi	r22, 0x91	; 145
    1318:	85 75       	andi	r24, 0x55	; 85
    131a:	67 5e       	subi	r22, 0xE7	; 231
    131c:	5e 6b       	ori	r21, 0xBE	; 190
    131e:	5e 54       	subi	r21, 0x4E	; 78
    1320:	5d 65       	ori	r21, 0x5D	; 93
    1322:	61 5b       	subi	r22, 0xB1	; 177
    1324:	6c 90       	ld	r6, X
    1326:	98 9a       	sbi	0x13, 0	; 19
    1328:	a6 9b       	sbis	0x14, 6	; 20
    132a:	a5 ac       	ldd	r10, Z+61	; 0x3d
    132c:	a1 a9       	ldd	r26, Z+49	; 0x31
    132e:	b3 b5       	in	r27, 0x23	; 35
    1330:	a9 92       	st	Y+, r10
    1332:	89 79       	andi	r24, 0x99	; 153
    1334:	68 69       	ori	r22, 0x98	; 152
    1336:	73 92       	.word	0x9273	; ????
    1338:	a4 a0       	ldd	r10, Z+36	; 0x24
    133a:	8f 88       	ldd	r8, Y+23	; 0x17
    133c:	85 70       	andi	r24, 0x05	; 5
    133e:	69 70       	andi	r22, 0x09	; 9
    1340:	7b 76       	andi	r23, 0x6B	; 107
    1342:	75 6d       	ori	r23, 0xD5	; 213
    1344:	63 74       	andi	r22, 0x43	; 67
    1346:	7a 79       	andi	r23, 0x9A	; 154
    1348:	87 99       	sbic	0x10, 7	; 16
    134a:	96 8c       	ldd	r9, Z+30	; 0x1e
    134c:	9a a3       	std	Y+34, r25	; 0x22
    134e:	96 8f       	std	Z+30, r25	; 0x1e
    1350:	8b 80       	ldd	r8, Y+3	; 0x03
    1352:	6e 61       	ori	r22, 0x1E	; 30
    1354:	4a 3a       	cpi	r20, 0xAA	; 170
    1356:	49 4d       	sbci	r20, 0xD9	; 217
    1358:	48 53       	subi	r20, 0x38	; 56
    135a:	69 71       	andi	r22, 0x19	; 25
    135c:	64 58       	subi	r22, 0x84	; 132
    135e:	62 66       	ori	r22, 0x62	; 98
    1360:	75 7f       	andi	r23, 0xF5	; 245
    1362:	7e 86       	std	Y+14, r7	; 0x0e
    1364:	8b 83       	std	Y+3, r24	; 0x03
    1366:	77 80       	ldd	r7, Z+7	; 0x07
    1368:	9e af       	std	Y+62, r25	; 0x3e
    136a:	a1 95       	neg	r26
    136c:	91 90       	ld	r9, Z+
    136e:	99 99       	sbic	0x13, 1	; 19
    1370:	a3 c7       	rjmp	.+3910   	; 0x22b8 <__stack+0x19b9>
    1372:	ce b2       	in	r12, 0x1e	; 30
    1374:	9c 94 8c 8c 	jmp	0x251918	; 0x251918 <__TEXT_REGION_LENGTH__+0x249918>
    1378:	88 77       	andi	r24, 0x78	; 120
    137a:	81 a5       	ldd	r24, Z+41	; 0x29
    137c:	a9 88       	ldd	r10, Y+17	; 0x11
    137e:	82 85       	ldd	r24, Z+10	; 0x0a
    1380:	76 6b       	ori	r23, 0xB6	; 182
    1382:	69 68       	ori	r22, 0x89	; 137
    1384:	69 6b       	ori	r22, 0xB9	; 185
    1386:	5e 5c       	subi	r21, 0xCE	; 206
    1388:	69 78       	andi	r22, 0x89	; 137
    138a:	76 6a       	ori	r23, 0xA6	; 166
    138c:	67 63       	ori	r22, 0x37	; 55
    138e:	64 67       	ori	r22, 0x74	; 116
    1390:	6d 6f       	ori	r22, 0xFD	; 253
    1392:	6b 77       	andi	r22, 0x7B	; 123
    1394:	66 53       	subi	r22, 0x36	; 54
    1396:	57 58       	subi	r21, 0x87	; 135
    1398:	6a 74       	andi	r22, 0x4A	; 74
    139a:	80 87       	std	Z+8, r24	; 0x08
    139c:	99 aa       	std	Y+49, r9	; 0x31
    139e:	a1 93       	st	Z+, r26
    13a0:	8c 8d       	ldd	r24, Y+28	; 0x1c
    13a2:	83 7a       	andi	r24, 0xA3	; 163
    13a4:	77 81       	ldd	r23, Z+7	; 0x07
    13a6:	87 8c       	ldd	r8, Z+31	; 0x1f
    13a8:	9b ac       	ldd	r9, Y+59	; 0x3b
    13aa:	ba ba       	out	0x1a, r11	; 26
    13ac:	aa a6       	std	Y+42, r10	; 0x2a
    13ae:	9e 92       	st	-X, r9
    13b0:	92 8e       	std	Z+26, r9	; 0x1a
    13b2:	8d 8d       	ldd	r24, Y+29	; 0x1d
    13b4:	84 7b       	andi	r24, 0xB4	; 180
    13b6:	7a 79       	andi	r23, 0x9A	; 154
    13b8:	79 7d       	andi	r23, 0xD9	; 217
    13ba:	73 5f       	subi	r23, 0xF3	; 243
    13bc:	53 54       	subi	r21, 0x43	; 67
    13be:	55 52       	subi	r21, 0x25	; 37
    13c0:	62 6c       	ori	r22, 0xC2	; 194
    13c2:	67 4c       	sbci	r22, 0xC7	; 199
    13c4:	3b 41       	sbci	r19, 0x1B	; 27
    13c6:	55 74       	andi	r21, 0x45	; 69
    13c8:	72 82       	std	Z+2, r7	; 0x02
    13ca:	94 9c       	mul	r9, r4
    13cc:	94 88       	ldd	r9, Z+20	; 0x14
    13ce:	9a b4       	in	r9, 0x2a	; 42
    13d0:	c8 c8       	rjmp	.-3696   	; 0x562 <__EEPROM_REGION_LENGTH__+0x162>
    13d2:	c6 bd       	out	0x26, r28	; 38
    13d4:	b5 b0       	in	r11, 0x05	; 5
    13d6:	9f 90       	pop	r9
    13d8:	80 6e       	ori	r24, 0xE0	; 224
    13da:	6d 6b       	ori	r22, 0xBD	; 189
    13dc:	6f 6b       	ori	r22, 0xBF	; 191
    13de:	6b 74       	andi	r22, 0x4B	; 75
    13e0:	64 62       	ori	r22, 0x24	; 36
    13e2:	63 5e       	subi	r22, 0xE3	; 227
    13e4:	60 5e       	subi	r22, 0xE0	; 224
    13e6:	65 6d       	ori	r22, 0xD5	; 213
    13e8:	80 94       	com	r8
    13ea:	9d 96       	adiw	r26, 0x2d	; 45
    13ec:	91 97       	sbiw	r26, 0x21	; 33
    13ee:	8e 9a       	sbi	0x11, 6	; 17
    13f0:	a0 9e       	mul	r10, r16
    13f2:	9e 95 9a 8c 	call	0x651934	; 0x651934 <__TEXT_REGION_LENGTH__+0x649934>
    13f6:	7b 75       	andi	r23, 0x5B	; 91
    13f8:	71 5f       	subi	r23, 0xF1	; 241
    13fa:	5b 67       	ori	r21, 0x7B	; 123
    13fc:	50 55       	subi	r21, 0x50	; 80
    13fe:	5f 54       	subi	r21, 0x4F	; 79
    1400:	4b 3f       	cpi	r20, 0xFB	; 251
    1402:	3c 3c       	cpi	r19, 0xCC	; 204
    1404:	54 7e       	andi	r21, 0xE4	; 228
    1406:	85 7b       	andi	r24, 0xB5	; 181
    1408:	8f 9d       	mul	r24, r15
    140a:	ab b2       	in	r10, 0x1b	; 27
    140c:	a8 a8       	ldd	r10, Y+48	; 0x30
    140e:	b2 a6       	std	Z+42, r11	; 0x2a
    1410:	87 7d       	andi	r24, 0xD7	; 215
    1412:	7f 86       	std	Y+15, r7	; 0x0f
    1414:	7f 7a       	andi	r23, 0xAF	; 175
    1416:	82 8d       	ldd	r24, Z+26	; 0x1a
    1418:	97 94       	ror	r9
    141a:	80 80       	ld	r8, Z
    141c:	89 81       	ldd	r24, Y+1	; 0x01
    141e:	64 54       	subi	r22, 0x44	; 68
    1420:	60 6d       	ori	r22, 0xD0	; 208
    1422:	80 94       	com	r8
    1424:	af ba       	out	0x1f, r10	; 31
    1426:	ba a0       	ldd	r11, Y+34	; 0x22
    1428:	90 8e       	std	Z+24, r9	; 0x18
    142a:	88 80       	ld	r8, Y
    142c:	87 95       	ror	r24
    142e:	8d 7d       	andi	r24, 0xDD	; 221
    1430:	70 71       	andi	r23, 0x10	; 16
    1432:	6b 75       	andi	r22, 0x5B	; 91
    1434:	73 61       	ori	r23, 0x13	; 19
    1436:	5f 56       	subi	r21, 0x6F	; 111
    1438:	4c 43       	sbci	r20, 0x3C	; 60
    143a:	3f 52       	subi	r19, 0x2F	; 47
    143c:	71 7f       	andi	r23, 0xF1	; 241
    143e:	8f 94 89 80 	call	0x230112	; 0x230112 <__TEXT_REGION_LENGTH__+0x228112>
    1442:	71 6c       	ori	r23, 0xC1	; 193
    1444:	6f 7d       	andi	r22, 0xDF	; 223
    1446:	90 93 8f 8d 	sts	0x8D8F, r25	; 0x808d8f <__bss_end+0x8c8b>
    144a:	8f 88       	ldd	r8, Y+23	; 0x17
    144c:	86 95       	lsr	r24
    144e:	a7 ae       	std	Z+63, r10	; 0x3f
    1450:	a6 a7       	std	Z+46, r26	; 0x2e
    1452:	93 82       	std	Z+3, r9	; 0x03
    1454:	85 8b       	std	Z+21, r24	; 0x15
    1456:	8b 86       	std	Y+11, r8	; 0x0b
    1458:	8c 82       	std	Y+4, r8	; 0x04
    145a:	76 7d       	andi	r23, 0xD6	; 214
    145c:	90 81       	ld	r25, Z
    145e:	76 8b       	std	Z+22, r23	; 0x16
    1460:	84 72       	andi	r24, 0x24	; 36
    1462:	6d 59       	subi	r22, 0x9D	; 157
    1464:	4e 61       	ori	r20, 0x1E	; 30
    1466:	71 69       	ori	r23, 0x91	; 145
    1468:	60 75       	andi	r22, 0x50	; 80
    146a:	7a 60       	ori	r23, 0x0A	; 10
    146c:	5b 6c       	ori	r21, 0xCB	; 203
    146e:	87 a6       	std	Z+47, r8	; 0x2f
    1470:	ab 9e       	mul	r10, r27
    1472:	97 94       	ror	r9
    1474:	8e 8a       	std	Y+22, r8	; 0x16
    1476:	8c 9b       	sbis	0x11, 4	; 17
    1478:	a5 a0       	ldd	r10, Z+37	; 0x25
    147a:	94 83       	std	Z+4, r25	; 0x04
    147c:	7f 73       	andi	r23, 0x3F	; 63
    147e:	6d 6c       	ori	r22, 0xCD	; 205
    1480:	6d 72       	andi	r22, 0x2D	; 45
    1482:	65 62       	ori	r22, 0x25	; 37
    1484:	62 5b       	subi	r22, 0xB2	; 178
    1486:	5c 72       	andi	r21, 0x2C	; 44
    1488:	7a 70       	andi	r23, 0x0A	; 10
    148a:	7b 7d       	andi	r23, 0xDB	; 219
    148c:	66 5e       	subi	r22, 0xE6	; 230
    148e:	6f 7e       	andi	r22, 0xEF	; 239
    1490:	87 99       	sbic	0x10, 7	; 16
    1492:	a8 ab       	std	Y+48, r26	; 0x30
    1494:	b3 ac       	ldd	r11, Z+59	; 0x3b
    1496:	aa b0       	in	r10, 0x0a	; 10
    1498:	bd bd       	out	0x2d, r27	; 45
    149a:	aa 92       	st	-Y, r10
    149c:	74 6f       	ori	r23, 0xF4	; 244
    149e:	68 5f       	subi	r22, 0xF8	; 248
    14a0:	5f 71       	andi	r21, 0x1F	; 31
    14a2:	74 66       	ori	r23, 0x64	; 100
    14a4:	57 48       	sbci	r21, 0x87	; 135
    14a6:	47 3f       	cpi	r20, 0xF7	; 247
    14a8:	53 66       	ori	r21, 0x63	; 99
    14aa:	70 75       	andi	r23, 0x50	; 80
    14ac:	6d 61       	ori	r22, 0x1D	; 29
    14ae:	4e 5d       	subi	r20, 0xDE	; 222
    14b0:	72 81       	ldd	r23, Z+2	; 0x02
    14b2:	a5 c2       	rjmp	.+1354   	; 0x19fe <__stack+0x10ff>
    14b4:	ba ab       	std	Y+50, r27	; 0x32
    14b6:	b6 a3       	std	Z+38, r27	; 0x26
    14b8:	9c b9       	out	0x0c, r25	; 12
    14ba:	bc b0       	in	r11, 0x0c	; 12
    14bc:	aa a7       	std	Y+42, r26	; 0x2a
    14be:	71 54       	subi	r23, 0x41	; 65
    14c0:	6b 71       	andi	r22, 0x1B	; 27
    14c2:	74 87       	std	Z+12, r23	; 0x0c
    14c4:	91 72       	andi	r25, 0x21	; 33
    14c6:	68 67       	ori	r22, 0x78	; 120
    14c8:	58 70       	andi	r21, 0x08	; 8
    14ca:	99 97       	sbiw	r26, 0x29	; 41
    14cc:	74 68       	ori	r23, 0x84	; 132
    14ce:	58 4c       	sbci	r21, 0xC8	; 200
    14d0:	5e 83       	std	Y+6, r21	; 0x06
    14d2:	8a 8c       	ldd	r8, Y+26	; 0x1a
    14d4:	bd b7       	in	r27, 0x3d	; 61
    14d6:	92 97       	sbiw	r26, 0x22	; 34
    14d8:	a8 8f       	std	Y+24, r26	; 0x18
    14da:	81 95       	neg	r24
    14dc:	87 7b       	andi	r24, 0xB7	; 183
    14de:	83 68       	ori	r24, 0x83	; 131
    14e0:	2f 3d       	cpi	r18, 0xDF	; 223
    14e2:	62 48       	sbci	r22, 0x82	; 130
    14e4:	44 72       	andi	r20, 0x24	; 36
    14e6:	81 6d       	ori	r24, 0xD1	; 209
    14e8:	79 7b       	andi	r23, 0xB9	; 185
    14ea:	61 6e       	ori	r22, 0xE1	; 225
    14ec:	85 74       	andi	r24, 0x45	; 69
    14ee:	67 92       	lat	Z, r6
    14f0:	89 5a       	subi	r24, 0xA9	; 169
    14f2:	73 95       	inc	r23
    14f4:	85 96       	adiw	r24, 0x25	; 37
    14f6:	d2 d7       	rcall	.+4004   	; 0x249c <__stack+0x1b9d>
    14f8:	c6 c6       	rjmp	.+3468   	; 0x2286 <__stack+0x1987>
    14fa:	aa 68       	ori	r26, 0x8A	; 138
    14fc:	6d 95 73 58 	jmp	0x5ab0e6	; 0x5ab0e6 <__TEXT_REGION_LENGTH__+0x5a30e6>
    1500:	6c 87       	std	Y+12, r22	; 0x0c
    1502:	5e 57       	subi	r21, 0x7E	; 126
    1504:	78 75       	andi	r23, 0x58	; 88
    1506:	92 ac       	ldd	r9, Z+58	; 0x3a
    1508:	a7 92       	lat	Z, r10
    150a:	a8 ba       	out	0x18, r10	; 24
    150c:	8d 6f       	ori	r24, 0xFD	; 253
    150e:	86 88       	ldd	r8, Z+22	; 0x16
    1510:	63 5b       	subi	r22, 0xB3	; 179
    1512:	50 4e       	sbci	r21, 0xE0	; 224
    1514:	6a 7e       	andi	r22, 0xEA	; 234
    1516:	83 89       	ldd	r24, Z+19	; 0x13
    1518:	a0 8a       	std	Z+16, r10	; 0x10
    151a:	61 54       	subi	r22, 0x41	; 65
    151c:	4e 59       	subi	r20, 0x9E	; 158
    151e:	65 71       	andi	r22, 0x15	; 21
    1520:	76 8a       	std	Z+22, r7	; 0x16
    1522:	80 5f       	subi	r24, 0xF0	; 240
    1524:	5e 68       	ori	r21, 0x8E	; 142
    1526:	7c 79       	andi	r23, 0x9C	; 156
    1528:	8e 9e       	mul	r8, r30
    152a:	9c aa       	std	Y+52, r9	; 0x34
    152c:	9d 75       	andi	r25, 0x5D	; 93
    152e:	7d a3       	std	Y+37, r23	; 0x25
    1530:	92 71       	andi	r25, 0x12	; 18
    1532:	84 93       	xch	Z, r24
    1534:	8b 86       	std	Y+11, r8	; 0x0b
    1536:	99 a7       	std	Y+41, r25	; 0x29
    1538:	a9 c1       	rjmp	.+850    	; 0x188c <__stack+0xf8d>
    153a:	b3 99       	sbic	0x16, 3	; 22
    153c:	9a 9b       	sbis	0x13, 2	; 19
    153e:	7c 76       	andi	r23, 0x6C	; 108
    1540:	87 7f       	andi	r24, 0xF7	; 247
    1542:	5e 52       	subi	r21, 0x2E	; 46
    1544:	5c 43       	sbci	r21, 0x3C	; 60
    1546:	4e 7e       	andi	r20, 0xEE	; 238
    1548:	89 99       	sbic	0x11, 1	; 17
    154a:	af 99       	sbic	0x15, 7	; 21
    154c:	71 68       	ori	r23, 0x81	; 129
    154e:	71 51       	subi	r23, 0x11	; 17
    1550:	33 45       	sbci	r19, 0x53	; 83
    1552:	5c 62       	ori	r21, 0x2C	; 44
    1554:	77 84       	ldd	r7, Z+15	; 0x0f
    1556:	8b 9c       	mul	r8, r11
    1558:	a0 86       	std	Z+8, r10	; 0x08
    155a:	72 6d       	ori	r23, 0xD2	; 210
    155c:	6b 6b       	ori	r22, 0xBB	; 187
    155e:	59 62       	ori	r21, 0x29	; 41
    1560:	71 77       	andi	r23, 0x71	; 113
    1562:	7e 72       	andi	r23, 0x2E	; 46
    1564:	76 8d       	ldd	r23, Z+30	; 0x1e
    1566:	82 7a       	andi	r24, 0xA2	; 162
    1568:	88 94       	clc
    156a:	a6 a6       	std	Z+46, r10	; 0x2e
    156c:	a6 a9       	ldd	r26, Z+54	; 0x36
    156e:	a7 b9       	out	0x07, r26	; 7
    1570:	aa a4       	ldd	r10, Y+42	; 0x2a
    1572:	ba a2       	std	Y+34, r11	; 0x22
    1574:	6a 64       	ori	r22, 0x4A	; 74
    1576:	7d 70       	andi	r23, 0x0D	; 13
    1578:	86 a3       	std	Z+38, r24	; 0x26
    157a:	a2 90       	ld	r10, -Z
    157c:	92 8f       	std	Z+26, r25	; 0x1a
    157e:	54 47       	sbci	r21, 0x74	; 116
    1580:	6a 4a       	sbci	r22, 0xAA	; 170
    1582:	26 4b       	sbci	r18, 0xB6	; 182
    1584:	60 5a       	subi	r22, 0xA0	; 160
    1586:	6e 80       	ldd	r6, Y+6	; 0x06
    1588:	6e 6e       	ori	r22, 0xEE	; 238
    158a:	8f 9d       	mul	r24, r15
    158c:	8b a4       	ldd	r8, Y+43	; 0x2b
    158e:	c6 a8       	ldd	r12, Z+54	; 0x36
    1590:	9f a8       	ldd	r9, Y+55	; 0x37
    1592:	77 61       	ori	r23, 0x17	; 23
    1594:	7d 78       	andi	r23, 0x8D	; 141
    1596:	66 7f       	andi	r22, 0xF6	; 246
    1598:	99 86       	std	Y+9, r9	; 0x09
    159a:	83 83       	std	Z+3, r24	; 0x03
    159c:	61 40       	sbci	r22, 0x01	; 1
    159e:	55 65       	ori	r21, 0x55	; 85
    15a0:	4e 52       	subi	r20, 0x2E	; 46
    15a2:	75 7b       	andi	r23, 0xB5	; 181
    15a4:	62 70       	andi	r22, 0x02	; 2
    15a6:	83 7b       	andi	r24, 0xB3	; 179
    15a8:	92 a5       	ldd	r25, Z+42	; 0x2a
    15aa:	95 9e       	mul	r9, r21
    15ac:	d4 d9       	rcall	.-3160   	; 0x956 <__stack+0x57>
    15ae:	b9 c0       	rjmp	.+370    	; 0x1722 <__stack+0xe23>
    15b0:	d6 c9       	rjmp	.-3156   	; 0x95e <__stack+0x5f>
    15b2:	be b0       	in	r11, 0x0e	; 14
    15b4:	81 6d       	ori	r24, 0xD1	; 209
    15b6:	5e 43       	sbci	r21, 0x3E	; 62
    15b8:	2d 4b       	sbci	r18, 0xBD	; 189
    15ba:	6e 6e       	ori	r22, 0xEE	; 238
    15bc:	6a 67       	ori	r22, 0x7A	; 122
    15be:	59 49       	sbci	r21, 0x99	; 153
    15c0:	42 3c       	cpi	r20, 0xC2	; 194
    15c2:	45 5a       	subi	r20, 0xA5	; 165
    15c4:	5c 58       	subi	r21, 0x8C	; 140
    15c6:	63 69       	ori	r22, 0x93	; 147
    15c8:	6f 6f       	ori	r22, 0xFF	; 255
    15ca:	89 95       	.word	0x9589	; ????
    15cc:	a4 c5       	rjmp	.+2888   	; 0x2116 <__stack+0x1817>
    15ce:	b2 9b       	sbis	0x16, 2	; 22
    15d0:	bb c5       	rjmp	.+2934   	; 0x2148 <__stack+0x1849>
    15d2:	96 81       	ldd	r25, Z+6	; 0x06
    15d4:	94 8c       	ldd	r9, Z+28	; 0x1c
    15d6:	79 76       	andi	r23, 0x69	; 105
    15d8:	76 68       	ori	r23, 0x86	; 134
    15da:	70 8e       	std	Z+24, r7	; 0x18
    15dc:	77 76       	andi	r23, 0x67	; 103
    15de:	a2 9b       	sbis	0x14, 2	; 20
    15e0:	7b 7b       	andi	r23, 0xBB	; 187
    15e2:	72 61       	ori	r23, 0x12	; 18
    15e4:	5d 83       	std	Y+5, r21	; 0x05
    15e6:	8c 7e       	andi	r24, 0xEC	; 236
    15e8:	9a 9b       	sbis	0x13, 2	; 19
    15ea:	87 9e       	mul	r8, r23
    15ec:	ba b7       	in	r27, 0x3a	; 58
    15ee:	bf d6       	rcall	.+3454   	; 0x236e <__stack+0x1a6f>
    15f0:	d1 99       	sbic	0x1a, 1	; 26
    15f2:	67 5c       	subi	r22, 0xC7	; 199
    15f4:	4f 4b       	sbci	r20, 0xBF	; 191
    15f6:	5b 60       	ori	r21, 0x0B	; 11
    15f8:	66 69       	ori	r22, 0x96	; 150
    15fa:	5d 3d       	cpi	r21, 0xDD	; 221
    15fc:	44 63       	ori	r20, 0x34	; 52
    15fe:	7e 82       	std	Y+6, r7	; 0x06
    1600:	7c 7b       	andi	r23, 0xBC	; 188
    1602:	67 65       	ori	r22, 0x57	; 87
    1604:	62 67       	ori	r22, 0x72	; 114
    1606:	7f 81       	ldd	r23, Y+7	; 0x07
    1608:	63 5d       	subi	r22, 0xD3	; 211
    160a:	64 73       	andi	r22, 0x34	; 52
    160c:	7f 8a       	std	Y+23, r7	; 0x17
    160e:	95 90       	lpm	r9, Z+
    1610:	9b a1       	ldd	r25, Y+35	; 0x23
    1612:	9a a4       	ldd	r9, Y+42	; 0x2a
    1614:	b0 99       	sbic	0x16, 0	; 22
    1616:	74 83       	std	Z+4, r23	; 0x04
    1618:	84 75       	andi	r24, 0x54	; 84
    161a:	8f 98       	cbi	0x11, 7	; 17
    161c:	95 98       	cbi	0x12, 5	; 18
    161e:	b1 a5       	ldd	r27, Z+41	; 0x29
    1620:	8c a4       	ldd	r8, Y+44	; 0x2c
    1622:	b6 8b       	std	Z+22, r27	; 0x16
    1624:	73 7c       	andi	r23, 0xC3	; 195
    1626:	60 58       	subi	r22, 0x80	; 128
    1628:	69 64       	ori	r22, 0x49	; 73
    162a:	4c 52       	subi	r20, 0x2C	; 44
    162c:	73 53       	subi	r23, 0x33	; 51
    162e:	3f 69       	ori	r19, 0x9F	; 159
    1630:	73 6a       	ori	r23, 0xA3	; 163
    1632:	84 90       	lpm	r8, Z
    1634:	7d 90       	ld	r7, X+
    1636:	99 8c       	ldd	r9, Y+25	; 0x19
    1638:	7a 8c       	ldd	r7, Y+26	; 0x1a
    163a:	91 78       	andi	r25, 0x81	; 129
    163c:	84 8b       	std	Z+20, r24	; 0x14
    163e:	7f 87       	std	Y+15, r23	; 0x0f
    1640:	a8 9b       	sbis	0x15, 0	; 21
    1642:	90 9f       	mul	r25, r16
    1644:	97 7b       	andi	r25, 0xB7	; 183
    1646:	5d 5a       	subi	r21, 0xAD	; 173
    1648:	4a 39       	cpi	r20, 0x9A	; 154
    164a:	4a 52       	subi	r20, 0x2A	; 42
    164c:	4f 6f       	ori	r20, 0xFF	; 255
    164e:	94 8c       	ldd	r9, Z+28	; 0x1c
    1650:	96 ac       	ldd	r9, Z+62	; 0x3e
    1652:	af b2       	in	r10, 0x1f	; 31
    1654:	a9 9f       	mul	r26, r25
    1656:	9d 98       	cbi	0x13, 5	; 19
    1658:	94 90       	lpm	r9, Z
    165a:	9b a9       	ldd	r25, Y+51	; 0x33
    165c:	95 84       	ldd	r9, Z+13	; 0x0d
    165e:	86 82       	std	Z+6, r8	; 0x06
    1660:	83 87       	std	Z+11, r24	; 0x0b
    1662:	83 86       	std	Z+11, r8	; 0x0b
    1664:	85 70       	andi	r24, 0x05	; 5
    1666:	57 4d       	sbci	r21, 0xD7	; 215
    1668:	51 4e       	sbci	r21, 0xE1	; 225
    166a:	40 54       	subi	r20, 0x40	; 64
    166c:	6f 6c       	ori	r22, 0xCF	; 207
    166e:	6b 51       	subi	r22, 0x1B	; 27
    1670:	52 6b       	ori	r21, 0xB2	; 178
    1672:	83 95       	inc	r24
    1674:	94 9f       	mul	r25, r20
    1676:	ad 9f       	mul	r26, r29
    1678:	75 72       	andi	r23, 0x25	; 37
    167a:	77 95       	ror	r23
    167c:	9f 8a       	std	Y+23, r9	; 0x17
    167e:	8d 8b       	std	Y+21, r24	; 0x15
    1680:	94 86       	std	Z+12, r9	; 0x0c
    1682:	74 93       	xch	Z, r23
    1684:	b2 a4       	ldd	r11, Z+42	; 0x2a
    1686:	91 85       	ldd	r25, Z+9	; 0x09
    1688:	75 72       	andi	r23, 0x25	; 37
    168a:	71 7e       	andi	r23, 0xE1	; 225
    168c:	9b af       	std	Y+59, r25	; 0x3b
    168e:	b0 8d       	ldd	r27, Z+24	; 0x18
    1690:	77 89       	ldd	r23, Z+23	; 0x17
    1692:	8a 8d       	ldd	r24, Y+26	; 0x1a
    1694:	aa b2       	in	r10, 0x1a	; 26
    1696:	90 5f       	subi	r25, 0xF0	; 240
    1698:	5d 69       	ori	r21, 0x9D	; 157
    169a:	55 46       	sbci	r21, 0x65	; 101
    169c:	44 3f       	cpi	r20, 0xF4	; 244
    169e:	4a 5d       	subi	r20, 0xDA	; 218
    16a0:	4e 49       	sbci	r20, 0x9E	; 158
    16a2:	6c 8c       	ldd	r6, Y+28	; 0x1c
    16a4:	90 81       	ld	r25, Z
    16a6:	84 8f       	std	Z+28, r24	; 0x1c
    16a8:	87 82       	std	Z+7, r8	; 0x07
    16aa:	7e 80       	ldd	r7, Y+6	; 0x06
    16ac:	89 8f       	std	Y+25, r24	; 0x19
    16ae:	85 88       	ldd	r8, Z+21	; 0x15
    16b0:	95 9c       	mul	r9, r5
    16b2:	99 88       	ldd	r9, Y+17	; 0x11
    16b4:	98 91       	.word	0x9198	; ????
    16b6:	77 73       	andi	r23, 0x37	; 55
    16b8:	74 7a       	andi	r23, 0xA4	; 164
    16ba:	7a 69       	ori	r23, 0x9A	; 154
    16bc:	6c 73       	andi	r22, 0x3C	; 60
    16be:	66 6f       	ori	r22, 0xF6	; 246
    16c0:	76 87       	std	Z+14, r23	; 0x0e
    16c2:	a8 a8       	ldd	r10, Y+48	; 0x30
    16c4:	9e a1       	ldd	r25, Y+38	; 0x26
    16c6:	a9 c4       	rjmp	.+2386   	; 0x201a <__stack+0x171b>
    16c8:	b5 a7       	std	Z+45, r27	; 0x2d
    16ca:	af 98       	cbi	0x15, 7	; 21
    16cc:	7b 6d       	ori	r23, 0xDB	; 219
    16ce:	4b 3c       	cpi	r20, 0xCB	; 203
    16d0:	65 7a       	andi	r22, 0xA5	; 165
    16d2:	84 7a       	andi	r24, 0xA4	; 164
    16d4:	7c 8e       	std	Y+28, r7	; 0x1c
    16d6:	83 81       	ldd	r24, Z+3	; 0x03
    16d8:	92 87       	std	Z+10, r25	; 0x0a
    16da:	73 69       	ori	r23, 0x93	; 147
    16dc:	53 3d       	cpi	r21, 0xD3	; 211
    16de:	2a 30       	cpi	r18, 0x0A	; 10
    16e0:	2c 3d       	cpi	r18, 0xDC	; 220
    16e2:	67 7a       	andi	r22, 0xA7	; 167
    16e4:	7b 80       	ldd	r7, Y+3	; 0x03
    16e6:	97 9d       	mul	r25, r7
    16e8:	ab b1       	in	r26, 0x0b	; 11
    16ea:	99 86       	std	Y+9, r9	; 0x09
    16ec:	87 91       	elpm	r24, Z+
    16ee:	94 9d       	mul	r25, r4
    16f0:	ac a6       	std	Y+44, r10	; 0x2c
    16f2:	9b 9c       	mul	r9, r11
    16f4:	a4 b0       	in	r10, 0x04	; 4
    16f6:	b8 a8       	ldd	r11, Y+48	; 0x30
    16f8:	a2 af       	std	Z+58, r26	; 0x3a
    16fa:	99 78       	andi	r25, 0x89	; 137
    16fc:	4e 47       	sbci	r20, 0x7E	; 126
    16fe:	6d 6f       	ori	r22, 0xFD	; 253
    1700:	5d 5c       	subi	r21, 0xCD	; 205
    1702:	5b 6b       	ori	r21, 0xBB	; 187
    1704:	72 60       	ori	r23, 0x02	; 2
    1706:	69 6e       	ori	r22, 0xE9	; 233
    1708:	65 4c       	sbci	r22, 0xC5	; 197
    170a:	39 5e       	subi	r19, 0xE9	; 233
    170c:	7c 71       	andi	r23, 0x1C	; 28
    170e:	83 9e       	mul	r8, r19
    1710:	a1 9e       	mul	r10, r17
    1712:	92 89       	ldd	r25, Z+18	; 0x12
    1714:	8c 9d       	mul	r24, r12
    1716:	ae a4       	ldd	r10, Y+46	; 0x2e
    1718:	94 a0       	ldd	r9, Z+36	; 0x24
    171a:	8b 75       	andi	r24, 0x5B	; 91
    171c:	8f 95 8b 6d 	call	0x62db16	; 0x62db16 <__TEXT_REGION_LENGTH__+0x625b16>
    1720:	6c 73       	andi	r22, 0x3C	; 60
    1722:	5a 3f       	cpi	r21, 0xFA	; 250
    1724:	3b 41       	sbci	r19, 0x1B	; 27
    1726:	57 75       	andi	r21, 0x57	; 87
    1728:	6e 63       	ori	r22, 0x3E	; 62
    172a:	6a 74       	andi	r22, 0x4A	; 74
    172c:	70 6a       	ori	r23, 0xA0	; 160
    172e:	81 a1       	ldd	r24, Z+33	; 0x21
    1730:	9d a1       	ldd	r25, Y+37	; 0x25
    1732:	a4 a4       	ldd	r10, Z+44	; 0x2c
    1734:	ae be       	out	0x3e, r10	; 62
    1736:	cd d6       	rcall	.+3482   	; 0x24d2 <__stack+0x1bd3>
    1738:	de d3       	rcall	.+1980   	; 0x1ef6 <__stack+0x15f7>
    173a:	c0 9f       	mul	r28, r16
    173c:	94 84       	ldd	r9, Z+12	; 0x0c
    173e:	7a 7f       	andi	r23, 0xFA	; 250
    1740:	71 6a       	ori	r23, 0xA1	; 161
    1742:	59 39       	cpi	r21, 0x99	; 153
    1744:	3b 3f       	cpi	r19, 0xFB	; 251
    1746:	3d 4e       	sbci	r19, 0xED	; 237
    1748:	52 5c       	subi	r21, 0xC2	; 194
    174a:	69 5d       	subi	r22, 0xD9	; 217
    174c:	4a 4e       	sbci	r20, 0xEA	; 234
    174e:	5e 7d       	andi	r21, 0xDE	; 222
    1750:	74 64       	ori	r23, 0x44	; 68
    1752:	75 7b       	andi	r23, 0xB5	; 181
    1754:	85 8d       	ldd	r24, Z+29	; 0x1d
    1756:	8c 9d       	mul	r24, r12
    1758:	b8 b9       	out	0x08, r27	; 8
    175a:	b0 96       	adiw	r30, 0x20	; 32
    175c:	8f 9b       	sbis	0x11, 7	; 17
    175e:	90 97       	sbiw	r26, 0x20	; 32
    1760:	ac 94 87 85 	jmp	0x290b0e	; 0x290b0e <__TEXT_REGION_LENGTH__+0x288b0e>
    1764:	6f 66       	ori	r22, 0x6F	; 111
    1766:	5b 59       	subi	r21, 0x9B	; 155
    1768:	5f 7b       	andi	r21, 0xBF	; 191
    176a:	94 84       	ldd	r9, Z+12	; 0x0c
    176c:	73 7f       	andi	r23, 0xF3	; 243
    176e:	96 8d       	ldd	r25, Z+30	; 0x1e
    1770:	a3 b0       	in	r10, 0x03	; 3
    1772:	a8 a1       	ldd	r26, Y+32	; 0x20
    1774:	90 84       	ldd	r9, Z+8	; 0x08
    1776:	73 75       	andi	r23, 0x53	; 83
    1778:	76 7a       	andi	r23, 0xA6	; 166
    177a:	73 7d       	andi	r23, 0xD3	; 211
    177c:	85 7c       	andi	r24, 0xC5	; 197
    177e:	78 6b       	ori	r23, 0xB8	; 184
    1780:	66 67       	ori	r22, 0x76	; 118
    1782:	68 5a       	subi	r22, 0xA8	; 168
    1784:	47 43       	sbci	r20, 0x37	; 55
    1786:	50 66       	ori	r21, 0x60	; 96
    1788:	6b 60       	ori	r22, 0x0B	; 11
    178a:	62 7d       	andi	r22, 0xD2	; 210
    178c:	9a 9a       	sbi	0x13, 2	; 19
    178e:	9e 9b       	sbis	0x13, 6	; 19
    1790:	a0 9c       	mul	r10, r0
    1792:	8a 84       	ldd	r8, Y+10	; 0x0a
    1794:	7f 8e       	std	Y+31, r7	; 0x1f
    1796:	94 7e       	andi	r25, 0xE4	; 228
    1798:	82 91       	ld	r24, -Z
    179a:	80 7f       	andi	r24, 0xF0	; 240
    179c:	84 7a       	andi	r24, 0xA4	; 164
    179e:	7c 93       	st	X, r23
    17a0:	8f 84       	ldd	r8, Y+15	; 0x0f
    17a2:	7b 74       	andi	r23, 0x4B	; 75
    17a4:	6b 5e       	subi	r22, 0xEB	; 235
    17a6:	85 9d       	mul	r24, r5
    17a8:	9f b2       	in	r9, 0x1f	; 31
    17aa:	c3 a9       	ldd	r28, Z+51	; 0x33
    17ac:	92 9c       	mul	r9, r2
    17ae:	93 8b       	std	Z+19, r25	; 0x13
    17b0:	8b 96       	adiw	r24, 0x2b	; 43
    17b2:	8d 82       	std	Y+5, r8	; 0x05
    17b4:	8c 78       	andi	r24, 0x8C	; 140
    17b6:	63 6c       	ori	r22, 0xC3	; 195
    17b8:	77 59       	subi	r23, 0x97	; 151
    17ba:	5b 6e       	ori	r21, 0xEB	; 235
    17bc:	4e 3e       	cpi	r20, 0xEE	; 238
    17be:	49 65       	ori	r20, 0x59	; 89
    17c0:	74 7c       	andi	r23, 0xC4	; 196
    17c2:	6d 46       	sbci	r22, 0x6D	; 109
    17c4:	56 7c       	andi	r21, 0xC6	; 198
    17c6:	64 4c       	sbci	r22, 0xC4	; 196
    17c8:	6b 8f       	std	Y+27, r22	; 0x1b
    17ca:	8e 81       	ldd	r24, Y+6	; 0x06
    17cc:	79 76       	andi	r23, 0x69	; 105
    17ce:	a4 ba       	out	0x14, r10	; 20
    17d0:	a0 8f       	std	Z+24, r26	; 0x18
    17d2:	a9 bd       	out	0x29, r26	; 41
    17d4:	9a 80       	ldd	r9, Y+2	; 0x02
    17d6:	78 6f       	ori	r23, 0xF8	; 248
    17d8:	7b 7b       	andi	r23, 0xBB	; 187
    17da:	5f 69       	ori	r21, 0x9F	; 159
    17dc:	96 b1       	in	r25, 0x06	; 6
    17de:	a0 88       	ldd	r10, Z+16	; 0x10
    17e0:	a4 ae       	std	Z+60, r10	; 0x3c
    17e2:	a6 a3       	std	Z+38, r26	; 0x26
    17e4:	81 89       	ldd	r24, Z+17	; 0x11
    17e6:	a0 93 67 45 	sts	0x4567, r26	; 0x804567 <__bss_end+0x4463>
    17ea:	5b 7b       	andi	r21, 0xBB	; 187
    17ec:	85 8e       	std	Z+29, r8	; 0x1d
    17ee:	83 76       	andi	r24, 0x63	; 99
    17f0:	78 6b       	ori	r23, 0xB8	; 184
    17f2:	5d 6d       	ori	r21, 0xDD	; 221
    17f4:	85 8c       	ldd	r8, Z+29	; 0x1d
    17f6:	84 7b       	andi	r24, 0xB4	; 180
    17f8:	7d 69       	ori	r23, 0x9D	; 157
    17fa:	69 63       	ori	r22, 0x39	; 57
    17fc:	4e 65       	ori	r20, 0x5E	; 94
    17fe:	86 8c       	ldd	r8, Z+30	; 0x1e
    1800:	75 5e       	subi	r23, 0xE5	; 229
    1802:	6b 88       	ldd	r6, Y+19	; 0x13
    1804:	80 80       	ld	r8, Z
    1806:	82 88       	ldd	r8, Z+18	; 0x12
    1808:	91 75       	andi	r25, 0x51	; 81
    180a:	4a 4d       	sbci	r20, 0xDA	; 218
    180c:	72 81       	ldd	r23, Z+2	; 0x02
    180e:	88 78       	andi	r24, 0x88	; 136
    1810:	82 8d       	ldd	r24, Z+26	; 0x1a
    1812:	7c 7d       	andi	r23, 0xDC	; 220
    1814:	9c c9       	rjmp	.-3272   	; 0xb4e <__stack+0x24f>
    1816:	e0 ca       	rjmp	.-2624   	; 0xdd8 <__stack+0x4d9>
    1818:	a2 a3       	std	Z+34, r26	; 0x22
    181a:	97 8a       	std	Z+23, r9	; 0x17
    181c:	75 66       	ori	r23, 0x65	; 101
    181e:	8c a3       	std	Y+36, r24	; 0x24
    1820:	97 79       	andi	r25, 0x97	; 151
    1822:	79 97       	sbiw	r30, 0x19	; 25
    1824:	92 7c       	andi	r25, 0xC2	; 194
    1826:	6e 5f       	subi	r22, 0xFE	; 254
    1828:	55 45       	sbci	r21, 0x55	; 85
    182a:	3c 31       	cpi	r19, 0x1C	; 28
    182c:	47 6e       	ori	r20, 0xE7	; 231
    182e:	71 74       	andi	r23, 0x41	; 65
    1830:	83 98       	cbi	0x10, 3	; 16
    1832:	8e 89       	ldd	r24, Y+22	; 0x16
    1834:	97 8b       	std	Z+23, r25	; 0x17
    1836:	87 92       	lat	Z, r8
    1838:	90 82       	st	Z, r9
    183a:	84 98       	cbi	0x10, 4	; 16
    183c:	95 87       	std	Z+13, r25	; 0x0d
    183e:	90 8f       	std	Z+24, r25	; 0x18
    1840:	6e 74       	andi	r22, 0x4E	; 78
    1842:	81 6d       	ori	r24, 0xD1	; 209
    1844:	67 74       	andi	r22, 0x47	; 71
    1846:	77 5e       	subi	r23, 0xE7	; 231
    1848:	70 7a       	andi	r23, 0xA0	; 160
    184a:	64 66       	ori	r22, 0x64	; 100
    184c:	6a 76       	andi	r22, 0x6A	; 106
    184e:	82 90       	ld	r8, -Z
    1850:	97 95       	ror	r25
    1852:	b8 cf       	rjmp	.-144    	; 0x17c4 <__stack+0xec5>
    1854:	a7 88       	ldd	r10, Z+23	; 0x17
    1856:	99 b0       	in	r9, 0x09	; 9
    1858:	ab 9f       	mul	r26, r27
    185a:	8f 8b       	std	Y+23, r24	; 0x17
    185c:	99 86       	std	Y+9, r9	; 0x09
    185e:	4a 36       	cpi	r20, 0x6A	; 106
    1860:	66 74       	andi	r22, 0x46	; 70
    1862:	5e 4f       	sbci	r21, 0xFE	; 254
    1864:	4d 59       	subi	r20, 0x9D	; 157
    1866:	65 5b       	subi	r22, 0xB5	; 181
    1868:	4e 6c       	ori	r20, 0xCE	; 206
    186a:	9e 9a       	sbi	0x13, 6	; 19
    186c:	6d 68       	ori	r22, 0x8D	; 141
    186e:	7b 77       	andi	r23, 0x7B	; 123
    1870:	7c 8a       	std	Y+20, r7	; 0x14
    1872:	85 9a       	sbi	0x10, 5	; 16
    1874:	b8 ab       	std	Y+48, r27	; 0x30
    1876:	87 7d       	andi	r24, 0xD7	; 215
    1878:	95 96       	adiw	r26, 0x25	; 37
    187a:	85 7e       	andi	r24, 0xE5	; 229
    187c:	5f 46       	sbci	r21, 0x6F	; 111
    187e:	45 38       	cpi	r20, 0x85	; 133
    1880:	36 59       	subi	r19, 0x96	; 150
    1882:	81 99       	sbic	0x10, 1	; 16
    1884:	9b 9a       	sbi	0x13, 3	; 19
    1886:	a0 a5       	ldd	r26, Z+40	; 0x28
    1888:	b3 a4       	ldd	r11, Z+43	; 0x2b
    188a:	8c 98       	cbi	0x11, 4	; 17
    188c:	af aa       	std	Y+55, r10	; 0x37
    188e:	92 8b       	std	Z+18, r25	; 0x12
    1890:	a5 b4       	in	r10, 0x25	; 37
    1892:	a1 a0       	ldd	r10, Z+33	; 0x21
    1894:	9f a0       	ldd	r9, Y+39	; 0x27
    1896:	a0 7c       	andi	r26, 0xC0	; 192
    1898:	4f 54       	subi	r20, 0x4F	; 79
    189a:	69 71       	andi	r22, 0x19	; 25
    189c:	74 63       	ori	r23, 0x34	; 52
    189e:	76 6d       	ori	r23, 0xD6	; 214
    18a0:	43 33       	cpi	r20, 0x33	; 51
    18a2:	3d 61       	ori	r19, 0x1D	; 29
    18a4:	77 6f       	ori	r23, 0xF7	; 247
    18a6:	6a 79       	andi	r22, 0x9A	; 154
    18a8:	81 92       	st	Z+, r8
    18aa:	87 81       	ldd	r24, Z+7	; 0x07
    18ac:	a2 a4       	ldd	r10, Z+42	; 0x2a
    18ae:	82 55       	subi	r24, 0x52	; 82
    18b0:	55 6c       	ori	r21, 0xC5	; 197
    18b2:	6b 70       	andi	r22, 0x0B	; 11
    18b4:	7e 93       	st	-X, r23
    18b6:	94 92       	xch	Z, r9
    18b8:	74 55       	subi	r23, 0x54	; 84
    18ba:	7d 9b       	sbis	0x0f, 5	; 15
    18bc:	9f a9       	ldd	r25, Y+55	; 0x37
    18be:	be c1       	rjmp	.+892    	; 0x1c3c <__stack+0x133d>
    18c0:	9b 91       	.word	0x919b	; ????
    18c2:	8a 6a       	ori	r24, 0xAA	; 170
    18c4:	70 86       	std	Z+8, r7	; 0x08
    18c6:	7f 78       	andi	r23, 0x8F	; 143
    18c8:	7d 86       	std	Y+13, r7	; 0x0d
    18ca:	91 93       	st	Z+, r25
    18cc:	9d 8e       	std	Y+29, r9	; 0x1d
    18ce:	67 60       	ori	r22, 0x07	; 7
    18d0:	5c 41       	sbci	r21, 0x1C	; 28
    18d2:	41 67       	ori	r20, 0x71	; 113
    18d4:	79 77       	andi	r23, 0x79	; 121
    18d6:	6c 71       	andi	r22, 0x1C	; 28
    18d8:	70 6b       	ori	r23, 0xB0	; 176
    18da:	7f 88       	ldd	r7, Y+23	; 0x17
    18dc:	95 b5       	in	r25, 0x25	; 37
    18de:	bc b7       	in	r27, 0x3c	; 60
    18e0:	b5 a5       	ldd	r27, Z+45	; 0x2d
    18e2:	a3 99       	sbic	0x14, 3	; 20
    18e4:	94 92       	xch	Z, r9
    18e6:	8d 82       	std	Y+5, r8	; 0x05
    18e8:	63 5a       	subi	r22, 0xA3	; 163
    18ea:	54 4d       	sbci	r21, 0xD4	; 212
    18ec:	54 66       	ori	r21, 0x64	; 100
    18ee:	61 59       	subi	r22, 0x91	; 145
    18f0:	5e 42       	sbci	r21, 0x2E	; 46
    18f2:	46 6f       	ori	r20, 0xF6	; 246
    18f4:	7c 71       	andi	r23, 0x1C	; 28
    18f6:	6a 7e       	andi	r22, 0xEA	; 234
    18f8:	7c 78       	andi	r23, 0x8C	; 140
    18fa:	8d 9c       	mul	r8, r13
    18fc:	b2 cc       	rjmp	.-1692   	; 0x1262 <__stack+0x963>
    18fe:	cd a7       	std	Y+45, r28	; 0x2d
    1900:	b5 d0       	rcall	.+362    	; 0x1a6c <__stack+0x116d>
    1902:	c8 c4       	rjmp	.+2448   	; 0x2294 <__stack+0x1995>
    1904:	b2 af       	std	Z+58, r27	; 0x3a
    1906:	a4 82       	std	Z+4, r10	; 0x04
    1908:	70 51       	subi	r23, 0x10	; 16
    190a:	3f 56       	subi	r19, 0x6F	; 111
    190c:	59 53       	subi	r21, 0x39	; 57
    190e:	71 84       	ldd	r7, Z+9	; 0x09
    1910:	6e 4e       	sbci	r22, 0xEE	; 238
    1912:	39 37       	cpi	r19, 0x79	; 121
    1914:	3a 4c       	sbci	r19, 0xCA	; 202
    1916:	52 53       	subi	r21, 0x32	; 50
    1918:	5b 61       	ori	r21, 0x1B	; 27
    191a:	5e 63       	ori	r21, 0x3E	; 62
    191c:	93 a9       	ldd	r25, Z+51	; 0x33
    191e:	ac b4       	in	r10, 0x2c	; 44
    1920:	9f 92       	push	r9
    1922:	89 7b       	andi	r24, 0xB9	; 185
    1924:	82 9f       	mul	r24, r18
    1926:	c1 a9       	ldd	r28, Z+49	; 0x31
    1928:	87 82       	std	Z+7, r8	; 0x07
    192a:	88 90       	.word	0x9088	; ????
    192c:	9a ae       	std	Y+58, r9	; 0x3a
    192e:	ba bf       	out	0x3a, r27	; 58
    1930:	a7 84       	ldd	r10, Z+15	; 0x0f
    1932:	64 71       	andi	r22, 0x14	; 20
    1934:	78 5a       	subi	r23, 0xA8	; 168
    1936:	60 7f       	andi	r22, 0xF0	; 240
    1938:	88 7e       	andi	r24, 0xE8	; 232
    193a:	7c 72       	andi	r23, 0x2C	; 44
    193c:	64 63       	ori	r22, 0x34	; 52
    193e:	6a 52       	subi	r22, 0x2A	; 42
    1940:	5e 8d       	ldd	r21, Y+30	; 0x1e
    1942:	89 7d       	andi	r24, 0xD9	; 217
    1944:	93 93       	.word	0x9393	; ????
    1946:	80 8a       	std	Z+16, r8	; 0x10
    1948:	92 85       	ldd	r25, Z+10	; 0x0a
    194a:	88 a2       	std	Y+32, r8	; 0x20
    194c:	99 82       	std	Y+1, r9	; 0x01
    194e:	85 8c       	ldd	r8, Z+29	; 0x1d
    1950:	88 92       	.word	0x9288	; ????
    1952:	9c 8e       	std	Y+28, r9	; 0x1c
    1954:	79 69       	ori	r23, 0x99	; 153
    1956:	61 3f       	cpi	r22, 0xF1	; 241
    1958:	2b 41       	sbci	r18, 0x1B	; 27
    195a:	3b 3a       	cpi	r19, 0xAB	; 171
    195c:	41 42       	sbci	r20, 0x21	; 33
    195e:	4e 54       	subi	r20, 0x4E	; 78
    1960:	75 83       	std	Z+5, r23	; 0x05
    1962:	8f a2       	std	Y+39, r8	; 0x27
    1964:	af a2       	std	Y+39, r10	; 0x27
    1966:	8a 9a       	sbi	0x11, 2	; 17
    1968:	b0 c2       	rjmp	.+1376   	; 0x1eca <__stack+0x15cb>
    196a:	af b1       	in	r26, 0x0f	; 15
    196c:	be b9       	out	0x0e, r27	; 14
    196e:	b1 ab       	std	Z+49, r27	; 0x31
    1970:	a7 b9       	out	0x07, r26	; 7
    1972:	d9 d1       	rcall	.+946    	; 0x1d26 <__stack+0x1427>
    1974:	a9 98       	cbi	0x15, 1	; 21
    1976:	93 65       	ori	r25, 0x53	; 83
    1978:	32 31       	cpi	r19, 0x12	; 18
    197a:	40 36       	cpi	r20, 0x60	; 96
    197c:	46 4d       	sbci	r20, 0xD6	; 214
    197e:	3f 51       	subi	r19, 0x1F	; 31
    1980:	76 66       	ori	r23, 0x66	; 102
    1982:	50 68       	ori	r21, 0x80	; 128
    1984:	80 74       	andi	r24, 0x40	; 64
    1986:	5d 5b       	subi	r21, 0xBD	; 189
    1988:	6e 87       	std	Y+14, r22	; 0x0e
    198a:	9a 9c       	mul	r9, r10
    198c:	81 86       	std	Z+9, r8	; 0x09
    198e:	90 79       	andi	r25, 0x90	; 144
    1990:	71 91       	ld	r23, Z+
    1992:	ae a8       	ldd	r10, Y+54	; 0x36
    1994:	94 89       	ldd	r25, Z+20	; 0x14
    1996:	78 71       	andi	r23, 0x18	; 24
    1998:	66 53       	subi	r22, 0x36	; 54
    199a:	56 67       	ori	r21, 0x76	; 118
    199c:	79 6f       	ori	r23, 0xF9	; 249
    199e:	7c a1       	ldd	r23, Y+36	; 0x24
    19a0:	a2 a7       	std	Z+42, r26	; 0x2a
    19a2:	ac 9f       	mul	r26, r28
    19a4:	a9 a7       	std	Y+41, r26	; 0x29
    19a6:	9b 95       	.word	0x959b	; ????
    19a8:	a8 a9       	ldd	r26, Y+48	; 0x30
    19aa:	82 78       	andi	r24, 0x82	; 130
    19ac:	77 7a       	andi	r23, 0xA7	; 167
    19ae:	74 78       	andi	r23, 0x84	; 132
    19b0:	80 8b       	std	Z+16, r24	; 0x10
    19b2:	9b 86       	std	Y+11, r9	; 0x0b
    19b4:	6c 71       	andi	r22, 0x1C	; 28
    19b6:	8c 77       	andi	r24, 0x7C	; 124
    19b8:	62 6e       	ori	r22, 0xE2	; 226
    19ba:	67 5b       	subi	r22, 0xB7	; 183
    19bc:	56 61       	ori	r21, 0x16	; 22
    19be:	6d 7a       	andi	r22, 0xAD	; 173
    19c0:	9c a2       	std	Y+36, r9	; 0x24
    19c2:	97 a4       	ldd	r9, Z+47	; 0x2f
    19c4:	ae 90       	ld	r10, -X
    19c6:	6d 6b       	ori	r22, 0xBD	; 189
    19c8:	58 56       	subi	r21, 0x68	; 104
    19ca:	64 59       	subi	r22, 0x94	; 148
    19cc:	3f 4e       	sbci	r19, 0xEF	; 239
    19ce:	79 73       	andi	r23, 0x39	; 57
    19d0:	6c 82       	std	Y+4, r6	; 0x04
    19d2:	83 63       	ori	r24, 0x33	; 51
    19d4:	63 60       	ori	r22, 0x03	; 3
    19d6:	5c 70       	andi	r21, 0x0C	; 12
    19d8:	9c ae       	std	Y+60, r9	; 0x3c
    19da:	9e a8       	ldd	r9, Y+54	; 0x36
    19dc:	a8 9e       	mul	r10, r24
    19de:	9f 9f       	mul	r25, r31
    19e0:	b7 c5       	rjmp	.+2926   	; 0x2550 <__stack+0x1c51>
    19e2:	b9 b1       	in	r27, 0x09	; 9
    19e4:	8c 86       	std	Y+12, r8	; 0x0c
    19e6:	8b 95       	.word	0x958b	; ????
    19e8:	86 89       	ldd	r24, Z+22	; 0x16
    19ea:	b0 aa       	std	Z+48, r11	; 0x30
    19ec:	84 4c       	sbci	r24, 0xC4	; 196
    19ee:	48 39       	cpi	r20, 0x98	; 152
    19f0:	3d 54       	subi	r19, 0x4D	; 77
    19f2:	54 5e       	subi	r21, 0xE4	; 228
    19f4:	7b 82       	std	Y+3, r7	; 0x03
    19f6:	60 4f       	sbci	r22, 0xF0	; 240
    19f8:	6b 83       	std	Y+3, r22	; 0x03
    19fa:	61 65       	ori	r22, 0x51	; 81
    19fc:	83 7f       	andi	r24, 0xF3	; 243
    19fe:	79 6e       	ori	r23, 0xE9	; 233
    1a00:	5b 61       	ori	r21, 0x1B	; 27
    1a02:	99 be       	out	0x39, r9	; 57
    1a04:	a4 a2       	std	Z+36, r10	; 0x24
    1a06:	be bd       	out	0x2e, r27	; 46
    1a08:	87 6b       	ori	r24, 0xB7	; 183
    1a0a:	85 83       	std	Z+5, r24	; 0x05
    1a0c:	84 84       	ldd	r8, Z+12	; 0x0c
    1a0e:	6e 69       	ori	r22, 0x9E	; 158
    1a10:	84 94       	.word	0x9484	; ????
    1a12:	70 6f       	ori	r23, 0xF0	; 240
    1a14:	8d 83       	std	Y+5, r24	; 0x05
    1a16:	62 6d       	ori	r22, 0xD2	; 210
    1a18:	7e 80       	ldd	r7, Y+6	; 0x06
    1a1a:	96 92       	lac	Z, r9
    1a1c:	85 81       	ldd	r24, Z+5	; 0x05
    1a1e:	a2 a4       	ldd	r10, Z+42	; 0x2a
    1a20:	78 75       	andi	r23, 0x58	; 88
    1a22:	94 9d       	mul	r25, r4
    1a24:	99 af       	std	Y+57, r25	; 0x39
    1a26:	b8 a9       	ldd	r27, Y+48	; 0x30
    1a28:	a5 7f       	andi	r26, 0xF5	; 245
    1a2a:	4e 4e       	sbci	r20, 0xEE	; 238
    1a2c:	64 7a       	andi	r22, 0xA4	; 164
    1a2e:	62 59       	subi	r22, 0x92	; 146
    1a30:	7f 82       	std	Y+7, r7	; 0x07
    1a32:	61 2f       	mov	r22, r17
    1a34:	28 37       	cpi	r18, 0x78	; 120
    1a36:	42 57       	subi	r20, 0x72	; 114
    1a38:	58 79       	andi	r21, 0x98	; 152
    1a3a:	93 8e       	std	Z+27, r9	; 0x1b
    1a3c:	78 5c       	subi	r23, 0xC8	; 200
    1a3e:	72 9b       	sbis	0x0e, 2	; 14
    1a40:	9e 84       	ldd	r9, Y+14	; 0x0e
    1a42:	89 95       	.word	0x9589	; ????
    1a44:	91 92       	st	Z+, r9
    1a46:	8f 92       	push	r8
    1a48:	99 b2       	in	r9, 0x19	; 25
    1a4a:	b2 88       	ldd	r11, Z+18	; 0x12
    1a4c:	81 9f       	mul	r24, r17
    1a4e:	b7 b5       	in	r27, 0x27	; 39
    1a50:	ba a4       	ldd	r11, Y+42	; 0x2a
    1a52:	87 85       	ldd	r24, Z+15	; 0x0f
    1a54:	7d 72       	andi	r23, 0x2D	; 45
    1a56:	88 ad       	ldd	r24, Y+56	; 0x38
    1a58:	ab 8c       	ldd	r10, Y+27	; 0x1b
    1a5a:	78 6f       	ori	r23, 0xF8	; 248
    1a5c:	53 4c       	sbci	r21, 0xC3	; 195
    1a5e:	5b 61       	ori	r21, 0x1B	; 27
    1a60:	58 76       	andi	r21, 0x68	; 104
    1a62:	92 7e       	andi	r25, 0xE2	; 226
    1a64:	7b 83       	std	Y+3, r23	; 0x03
    1a66:	7c 77       	andi	r23, 0x7C	; 124
    1a68:	7b 7a       	andi	r23, 0xAB	; 171
    1a6a:	71 70       	andi	r23, 0x01	; 1
    1a6c:	6e 61       	ori	r22, 0x1E	; 30
    1a6e:	4d 61       	ori	r20, 0x1D	; 29
    1a70:	72 65       	ori	r23, 0x52	; 82
    1a72:	7e 90       	ld	r7, -X
    1a74:	7d 5a       	subi	r23, 0xAD	; 173
    1a76:	5a 54       	subi	r21, 0x4A	; 74
    1a78:	52 6d       	ori	r21, 0xD2	; 210
    1a7a:	75 7b       	andi	r23, 0xB5	; 181
    1a7c:	80 9b       	sbis	0x10, 0	; 16
    1a7e:	b2 a3       	std	Z+34, r27	; 0x22
    1a80:	a7 ad       	ldd	r26, Z+63	; 0x3f
    1a82:	9e 90       	ld	r9, -X
    1a84:	88 90       	.word	0x9088	; ????
    1a86:	9f b8       	out	0x0f, r9	; 15
    1a88:	b5 a5       	ldd	r27, Z+45	; 0x2d
    1a8a:	96 99       	sbic	0x12, 6	; 18
    1a8c:	93 6b       	ori	r25, 0xB3	; 179
    1a8e:	60 85       	ldd	r22, Z+8	; 0x08
    1a90:	ad aa       	std	Y+53, r10	; 0x35
    1a92:	96 8f       	std	Z+30, r25	; 0x1e
    1a94:	81 71       	andi	r24, 0x11	; 17
    1a96:	65 56       	subi	r22, 0x65	; 101
    1a98:	4a 51       	subi	r20, 0x1A	; 26
    1a9a:	69 64       	ori	r22, 0x49	; 73
    1a9c:	53 70       	andi	r21, 0x03	; 3
    1a9e:	92 8c       	ldd	r9, Z+26	; 0x1a
    1aa0:	6a 58       	subi	r22, 0x8A	; 138
    1aa2:	60 68       	ori	r22, 0x80	; 128
    1aa4:	7a 7f       	andi	r23, 0xFA	; 250
    1aa6:	71 6e       	ori	r23, 0xE1	; 225
    1aa8:	84 73       	andi	r24, 0x34	; 52
    1aaa:	4b 56       	subi	r20, 0x6B	; 107
    1aac:	76 8b       	std	Z+22, r23	; 0x16
    1aae:	87 84       	ldd	r8, Z+15	; 0x0f
    1ab0:	78 78       	andi	r23, 0x88	; 136
    1ab2:	87 8e       	std	Z+31, r8	; 0x1f
    1ab4:	7c 7d       	andi	r23, 0xDC	; 220
    1ab6:	9d 98       	cbi	0x13, 5	; 19
    1ab8:	82 81       	ldd	r24, Z+2	; 0x02
    1aba:	9d b4       	in	r9, 0x2d	; 45
    1abc:	ad 96       	adiw	r28, 0x2d	; 45
    1abe:	8a a2       	std	Y+34, r8	; 0x22
    1ac0:	be ba       	out	0x1e, r11	; 30
    1ac2:	a9 a9       	ldd	r26, Y+49	; 0x31
    1ac4:	bd b1       	in	r27, 0x0d	; 13
    1ac6:	92 90       	ld	r9, -Z
    1ac8:	94 9b       	sbis	0x12, 4	; 18
    1aca:	88 66       	ori	r24, 0x68	; 104
    1acc:	56 60       	ori	r21, 0x06	; 6
    1ace:	76 6a       	ori	r23, 0xA6	; 166
    1ad0:	3e 39       	cpi	r19, 0x9E	; 158
    1ad2:	58 57       	subi	r21, 0x78	; 120
    1ad4:	39 2f       	mov	r19, r25
    1ad6:	47 59       	subi	r20, 0x97	; 151
    1ad8:	61 54       	subi	r22, 0x41	; 65
    1ada:	49 6a       	ori	r20, 0xA9	; 169
    1adc:	8e 98       	cbi	0x11, 6	; 17
    1ade:	89 80       	ldd	r8, Y+1	; 0x01
    1ae0:	8d 94 88 89 	jmp	0x231310	; 0x231310 <__TEXT_REGION_LENGTH__+0x229310>
    1ae4:	a1 bc       	out	0x21, r10	; 33
    1ae6:	be ab       	std	Y+54, r27	; 0x36
    1ae8:	87 6e       	ori	r24, 0xE7	; 231
    1aea:	6f 75       	andi	r22, 0x5F	; 95
    1aec:	6a 5f       	subi	r22, 0xFA	; 250
    1aee:	79 95       	.word	0x9579	; ????
    1af0:	88 77       	andi	r24, 0x78	; 120
    1af2:	70 5d       	subi	r23, 0xD0	; 208
    1af4:	71 99       	sbic	0x0e, 1	; 14
    1af6:	aa b4       	in	r10, 0x2a	; 42
    1af8:	ca ce       	rjmp	.-620    	; 0x188e <__stack+0xf8f>
    1afa:	a5 75       	andi	r26, 0x55	; 85
    1afc:	70 74       	andi	r23, 0x40	; 64
    1afe:	79 96       	adiw	r30, 0x19	; 25
    1b00:	ab 98       	cbi	0x15, 3	; 21
    1b02:	88 a4       	ldd	r8, Y+40	; 0x28
    1b04:	98 81       	ld	r25, Y
    1b06:	9d a2       	std	Y+37, r9	; 0x25
    1b08:	82 74       	andi	r24, 0x42	; 66
    1b0a:	70 67       	ori	r23, 0x70	; 112
    1b0c:	58 5b       	subi	r21, 0xB8	; 184
    1b0e:	65 4e       	sbci	r22, 0xE5	; 229
    1b10:	41 57       	subi	r20, 0x71	; 113
    1b12:	44 37       	cpi	r20, 0x74	; 116
    1b14:	52 6a       	ori	r21, 0xA2	; 162
    1b16:	6f 73       	andi	r22, 0x3F	; 63
    1b18:	7b 63       	ori	r23, 0x3B	; 59
    1b1a:	56 55       	subi	r21, 0x56	; 86
    1b1c:	52 52       	subi	r21, 0x22	; 34
    1b1e:	6a 9b       	sbis	0x0d, 2	; 13
    1b20:	a4 98       	cbi	0x14, 4	; 20
    1b22:	a5 aa       	std	Z+53, r10	; 0x35
    1b24:	93 8c       	ldd	r9, Z+27	; 0x1b
    1b26:	96 93       	lac	Z, r25
    1b28:	a6 b0       	in	r10, 0x06	; 6
    1b2a:	a1 8f       	std	Z+25, r26	; 0x19
    1b2c:	8a a2       	std	Y+34, r8	; 0x22
    1b2e:	9b 82       	std	Y+3, r9	; 0x03
    1b30:	98 c2       	rjmp	.+1328   	; 0x2062 <__stack+0x1763>
    1b32:	d7 b7       	in	r29, 0x37	; 55
    1b34:	91 86       	std	Z+9, r9	; 0x09
    1b36:	78 80       	ld	r7, Y
    1b38:	87 76       	andi	r24, 0x67	; 103
    1b3a:	6d 7f       	andi	r22, 0xFD	; 253
    1b3c:	7e 5b       	subi	r23, 0xBE	; 190
    1b3e:	54 7f       	andi	r21, 0xF4	; 244
    1b40:	8a 71       	andi	r24, 0x1A	; 26
    1b42:	51 4d       	sbci	r21, 0xD1	; 209
    1b44:	57 68       	ori	r21, 0x87	; 135
    1b46:	82 75       	andi	r24, 0x52	; 82
    1b48:	78 90       	.word	0x9078	; ????
    1b4a:	9b 6c       	ori	r25, 0xCB	; 203
    1b4c:	53 67       	ori	r21, 0x73	; 115
    1b4e:	85 7f       	andi	r24, 0xF5	; 245
    1b50:	61 51       	subi	r22, 0x11	; 17
    1b52:	49 5a       	subi	r20, 0xA9	; 169
    1b54:	7a 84       	ldd	r7, Y+10	; 0x0a
    1b56:	7c 8c       	ldd	r7, Y+28	; 0x1c
    1b58:	8a 77       	andi	r24, 0x7A	; 122
    1b5a:	65 79       	andi	r22, 0x95	; 149
    1b5c:	9c a2       	std	Y+36, r9	; 0x24
    1b5e:	97 93       	lat	Z, r25
    1b60:	86 7b       	andi	r24, 0xB6	; 182
    1b62:	7f 71       	andi	r23, 0x1F	; 31
    1b64:	60 7c       	andi	r22, 0xC0	; 192
    1b66:	ab ab       	std	Y+51, r26	; 0x33
    1b68:	a0 ac       	ldd	r10, Z+56	; 0x38
    1b6a:	c8 d8       	rcall	.-3696   	; 0xcfc <__stack+0x3fd>
    1b6c:	b7 97       	sbiw	r30, 0x27	; 39
    1b6e:	8b 94       	des	8
    1b70:	9f 7d       	andi	r25, 0xDF	; 223
    1b72:	5b 5d       	subi	r21, 0xDB	; 219
    1b74:	72 5f       	subi	r23, 0xF2	; 242
    1b76:	42 58       	subi	r20, 0x82	; 130
    1b78:	81 92       	st	Z+, r8
    1b7a:	86 70       	andi	r24, 0x06	; 6
    1b7c:	5e 76       	andi	r21, 0x6E	; 110
    1b7e:	8b 6c       	ori	r24, 0xCB	; 203
    1b80:	61 76       	andi	r22, 0x61	; 97
    1b82:	74 4f       	sbci	r23, 0xF4	; 244
    1b84:	39 4b       	sbci	r19, 0xB9	; 185
    1b86:	76 a2       	std	Z+38, r7	; 0x26
    1b88:	b1 a3       	std	Z+33, r27	; 0x21
    1b8a:	8d 8b       	std	Y+21, r24	; 0x15
    1b8c:	81 5d       	subi	r24, 0xD1	; 209
    1b8e:	61 99       	sbic	0x0c, 1	; 12
    1b90:	b4 a8       	ldd	r11, Z+52	; 0x34
    1b92:	85 62       	ori	r24, 0x25	; 37
    1b94:	50 60       	ori	r21, 0x00	; 0
    1b96:	7d 68       	ori	r23, 0x8D	; 141
    1b98:	80 b2       	in	r8, 0x10	; 16
    1b9a:	b8 92       	.word	0x92b8	; ????
    1b9c:	6e 74       	andi	r22, 0x4E	; 78
    1b9e:	85 9c       	mul	r8, r5
    1ba0:	89 79       	andi	r24, 0x99	; 153
    1ba2:	80 85       	ldd	r24, Z+8	; 0x08
    1ba4:	8c 62       	ori	r24, 0x2C	; 44
    1ba6:	59 81       	ldd	r21, Y+1	; 0x01
    1ba8:	a7 ba       	out	0x17, r10	; 23
    1baa:	9b 90       	.word	0x909b	; ????
    1bac:	a4 ae       	std	Z+60, r10	; 0x3c
    1bae:	8e 68       	ori	r24, 0x8E	; 142
    1bb0:	71 84       	ldd	r7, Z+9	; 0x09
    1bb2:	ac ac       	ldd	r10, Y+60	; 0x3c
    1bb4:	75 4e       	sbci	r23, 0xE5	; 229
    1bb6:	43 4e       	sbci	r20, 0xE3	; 227
    1bb8:	51 59       	subi	r21, 0x91	; 145
    1bba:	77 83       	std	Z+7, r23	; 0x07
    1bbc:	70 62       	ori	r23, 0x20	; 32
    1bbe:	5f 60       	ori	r21, 0x0F	; 15
    1bc0:	7b 9a       	sbi	0x0f, 3	; 15
    1bc2:	96 71       	andi	r25, 0x16	; 22
    1bc4:	6c 72       	andi	r22, 0x2C	; 44
    1bc6:	4e 4f       	sbci	r20, 0xFE	; 254
    1bc8:	6d 71       	andi	r22, 0x1D	; 29
    1bca:	6b 85       	ldd	r22, Y+11	; 0x0b
    1bcc:	9a 7b       	andi	r25, 0xBA	; 186
    1bce:	6b 8a       	std	Y+19, r6	; 0x13
    1bd0:	a3 98       	cbi	0x14, 3	; 20
    1bd2:	89 83       	std	Y+1, r24	; 0x01
    1bd4:	80 9d       	mul	r24, r0
    1bd6:	c7 b4       	in	r12, 0x27	; 39
    1bd8:	96 a6       	std	Z+46, r9	; 0x2e
    1bda:	ae ab       	std	Y+54, r26	; 0x36
    1bdc:	a3 a0       	ldd	r10, Z+35	; 0x23
    1bde:	99 95       	.word	0x9599	; ????
    1be0:	a3 9b       	sbis	0x14, 3	; 20
    1be2:	7a 87       	std	Y+10, r23	; 0x0a
    1be4:	9a 7f       	andi	r25, 0xFA	; 250
    1be6:	6e 6d       	ori	r22, 0xDE	; 222
    1be8:	77 70       	andi	r23, 0x07	; 7
    1bea:	69 61       	ori	r22, 0x19	; 25
    1bec:	4a 51       	subi	r20, 0x1A	; 26
    1bee:	62 60       	ori	r22, 0x02	; 2
    1bf0:	4f 52       	subi	r20, 0x2F	; 47
    1bf2:	5f 5e       	subi	r21, 0xEF	; 239
    1bf4:	5b 4f       	sbci	r21, 0xFB	; 251
    1bf6:	50 6b       	ori	r21, 0xB0	; 176
    1bf8:	79 76       	andi	r23, 0x69	; 105
    1bfa:	7a 93       	st	-Y, r23
    1bfc:	a1 b3       	in	r26, 0x11	; 17
    1bfe:	c0 bf       	out	0x30, r28	; 48
    1c00:	c8 a9       	ldd	r28, Y+48	; 0x30
    1c02:	8c 77       	andi	r24, 0x7C	; 124
    1c04:	64 5b       	subi	r22, 0xB4	; 180
    1c06:	51 52       	subi	r21, 0x21	; 33
    1c08:	63 82       	std	Z+3, r6	; 0x03
    1c0a:	92 88       	ldd	r9, Z+18	; 0x12
    1c0c:	7b 85       	ldd	r23, Y+11	; 0x0b
    1c0e:	91 82       	std	Z+1, r9	; 0x01
    1c10:	7e 93       	st	-X, r23
    1c12:	8e 7d       	andi	r24, 0xDE	; 222
    1c14:	65 4e       	sbci	r22, 0xE5	; 229
    1c16:	5a 86       	std	Y+10, r5	; 0x0a
    1c18:	b1 ab       	std	Z+49, r27	; 0x31
    1c1a:	96 a0       	ldd	r9, Z+38	; 0x26
    1c1c:	a8 90       	.word	0x90a8	; ????
    1c1e:	83 9d       	mul	r24, r3
    1c20:	be d6       	rcall	.+3452   	; 0x299e <__stack+0x209f>
    1c22:	c0 8d       	ldd	r28, Z+24	; 0x18
    1c24:	6b 66       	ori	r22, 0x6B	; 107
    1c26:	6e 51       	subi	r22, 0x1E	; 30
    1c28:	44 5e       	subi	r20, 0xE4	; 228
    1c2a:	72 72       	andi	r23, 0x22	; 34
    1c2c:	4c 3d       	cpi	r20, 0xDC	; 220
    1c2e:	62 90       	ld	r6, -Z
    1c30:	8f 6c       	ori	r24, 0xCF	; 207
    1c32:	5d 61       	ori	r21, 0x1D	; 29
    1c34:	6e 67       	ori	r22, 0x7E	; 126
    1c36:	51 50       	subi	r21, 0x01	; 1
    1c38:	61 79       	andi	r22, 0x91	; 145
    1c3a:	7a 76       	andi	r23, 0x6A	; 106
    1c3c:	86 83       	std	Z+6, r24	; 0x06
    1c3e:	7a 80       	ldd	r7, Y+2	; 0x02
    1c40:	92 97       	sbiw	r26, 0x22	; 34
    1c42:	bd dc       	rcall	.-1670   	; 0x15be <__stack+0xcbf>
    1c44:	d2 9d       	mul	r29, r2
    1c46:	85 95       	asr	r24
    1c48:	79 80       	ldd	r7, Y+1	; 0x01
    1c4a:	9c 98       	cbi	0x13, 4	; 19
    1c4c:	7f 97       	sbiw	r30, 0x1f	; 31
    1c4e:	a7 8a       	std	Z+23, r10	; 0x17
    1c50:	7e 9b       	sbis	0x0f, 6	; 15
    1c52:	ba a5       	ldd	r27, Y+42	; 0x2a
    1c54:	8a 79       	andi	r24, 0x9A	; 154
    1c56:	58 66       	ori	r21, 0x68	; 104
    1c58:	8b 6f       	ori	r24, 0xFB	; 251
    1c5a:	4b 59       	subi	r20, 0x9B	; 155
    1c5c:	6b 5b       	subi	r22, 0xBB	; 187
    1c5e:	49 4a       	sbci	r20, 0xA9	; 169
    1c60:	4c 54       	subi	r20, 0x4C	; 76
    1c62:	6f 6a       	ori	r22, 0xAF	; 175
    1c64:	61 73       	andi	r22, 0x31	; 49
    1c66:	7e 65       	ori	r23, 0x5E	; 94
    1c68:	4f 66       	ori	r20, 0x6F	; 111
    1c6a:	84 96       	adiw	r24, 0x24	; 36
    1c6c:	aa ad       	ldd	r26, Y+58	; 0x3a
    1c6e:	a7 ac       	ldd	r10, Z+63	; 0x3f
    1c70:	b0 b2       	in	r11, 0x10	; 16
    1c72:	a6 97       	sbiw	r28, 0x26	; 38
    1c74:	9a a2       	std	Y+34, r9	; 0x22
    1c76:	8a 68       	ori	r24, 0x8A	; 138
    1c78:	4e 52       	subi	r20, 0x2E	; 46
    1c7a:	62 69       	ori	r22, 0x92	; 146
    1c7c:	74 86       	std	Z+12, r7	; 0x0c
    1c7e:	95 93       	las	Z, r25
    1c80:	83 7c       	andi	r24, 0xC3	; 195
    1c82:	8a 7d       	andi	r24, 0xDA	; 218
    1c84:	82 85       	ldd	r24, Z+10	; 0x0a
    1c86:	7f 84       	ldd	r7, Y+15	; 0x0f
    1c88:	70 53       	subi	r23, 0x30	; 48
    1c8a:	48 61       	ori	r20, 0x18	; 24
    1c8c:	80 83       	st	Z, r24
    1c8e:	99 bf       	out	0x39, r25	; 57
    1c90:	d0 bb       	out	0x10, r29	; 16
    1c92:	a5 b6       	in	r10, 0x35	; 53
    1c94:	a4 87       	std	Z+12, r26	; 0x0c
    1c96:	64 40       	sbci	r22, 0x04	; 4
    1c98:	38 48       	sbci	r19, 0x88	; 136
    1c9a:	63 58       	subi	r22, 0x83	; 131
    1c9c:	59 7e       	andi	r21, 0xE9	; 233
    1c9e:	99 95       	.word	0x9599	; ????
    1ca0:	8f a1       	ldd	r24, Y+39	; 0x27
    1ca2:	9f 99       	sbic	0x13, 7	; 19
    1ca4:	84 4d       	sbci	r24, 0xD4	; 212
    1ca6:	44 5c       	subi	r20, 0xC4	; 196
    1ca8:	72 58       	subi	r23, 0x82	; 130
    1caa:	4a 79       	andi	r20, 0x9A	; 154
    1cac:	82 70       	andi	r24, 0x02	; 2
    1cae:	6e 7e       	andi	r22, 0xEE	; 238
    1cb0:	99 b4       	in	r9, 0x29	; 41
    1cb2:	bc 99       	sbic	0x17, 4	; 23
    1cb4:	6f 73       	andi	r22, 0x3F	; 63
    1cb6:	78 67       	ori	r23, 0x78	; 120
    1cb8:	79 a0       	ldd	r7, Y+33	; 0x21
    1cba:	9a 81       	ldd	r25, Y+2	; 0x02
    1cbc:	83 83       	std	Z+3, r24	; 0x03
    1cbe:	7c 7a       	andi	r23, 0xAC	; 172
    1cc0:	93 9b       	sbis	0x12, 3	; 18
    1cc2:	8f a0       	ldd	r8, Y+39	; 0x27
    1cc4:	a9 9a       	sbi	0x15, 1	; 21
    1cc6:	94 a1       	ldd	r25, Z+36	; 0x24
    1cc8:	9b 99       	sbic	0x13, 3	; 19
    1cca:	92 80       	ldd	r9, Z+2	; 0x02
    1ccc:	6e 58       	subi	r22, 0x8E	; 142
    1cce:	5b 5e       	subi	r21, 0xEB	; 235
    1cd0:	6f 88       	ldd	r6, Y+23	; 0x17
    1cd2:	8a 7c       	andi	r24, 0xCA	; 202
    1cd4:	6b 77       	andi	r22, 0x7B	; 123
    1cd6:	7c 6f       	ori	r23, 0xFC	; 252
    1cd8:	55 51       	subi	r21, 0x15	; 21
    1cda:	75 70       	andi	r23, 0x05	; 5
    1cdc:	61 5b       	subi	r22, 0xB1	; 177
    1cde:	53 6d       	ori	r21, 0xD3	; 211
    1ce0:	89 81       	ldd	r24, Y+1	; 0x01
    1ce2:	6e 73       	andi	r22, 0x3E	; 62
    1ce4:	82 85       	ldd	r24, Z+10	; 0x0a
    1ce6:	78 7e       	andi	r23, 0xE8	; 232
    1ce8:	9f b4       	in	r9, 0x2f	; 47
    1cea:	ba 99       	sbic	0x17, 2	; 23
    1cec:	7c 7a       	andi	r23, 0xAC	; 172
    1cee:	7f 8e       	std	Y+31, r7	; 0x1f
    1cf0:	96 ae       	std	Z+62, r9	; 0x3e
    1cf2:	bd ba       	out	0x1d, r11	; 29
    1cf4:	af 9a       	sbi	0x15, 7	; 21
    1cf6:	8a 90       	ld	r8, -Y
    1cf8:	a2 92       	st	-Z, r10
    1cfa:	60 41       	sbci	r22, 0x10	; 16
    1cfc:	3f 45       	sbci	r19, 0x5F	; 95
    1cfe:	60 83       	st	Z, r22
    1d00:	93 81       	ldd	r25, Z+3	; 0x03
    1d02:	83 74       	andi	r24, 0x43	; 67
    1d04:	4e 50       	subi	r20, 0x0E	; 14
    1d06:	6b 68       	ori	r22, 0x8B	; 139
    1d08:	5b 6c       	ori	r21, 0xCB	; 203
    1d0a:	6d 6e       	ori	r22, 0xED	; 237
    1d0c:	71 91       	ld	r23, Z+
    1d0e:	98 98       	cbi	0x13, 0	; 19
    1d10:	ad b3       	in	r26, 0x1d	; 29
    1d12:	9f 97       	sbiw	r26, 0x2f	; 47
    1d14:	b5 a2       	std	Z+37, r11	; 0x25
    1d16:	88 7c       	andi	r24, 0xC8	; 200
    1d18:	70 76       	andi	r23, 0x60	; 96
    1d1a:	78 72       	andi	r23, 0x28	; 40
    1d1c:	76 67       	ori	r23, 0x76	; 118
    1d1e:	60 52       	subi	r22, 0x20	; 32
    1d20:	49 64       	ori	r20, 0x49	; 73
    1d22:	79 82       	std	Y+1, r7	; 0x01
    1d24:	60 36       	cpi	r22, 0x60	; 96
    1d26:	48 74       	andi	r20, 0x48	; 72
    1d28:	84 8d       	ldd	r24, Z+28	; 0x1c
    1d2a:	9d a3       	std	Y+37, r25	; 0x25
    1d2c:	99 83       	std	Y+1, r25	; 0x01
    1d2e:	6a 67       	ori	r22, 0x7A	; 122
    1d30:	9e d8       	rcall	.-3780   	; 0xe6e <__stack+0x56f>
    1d32:	ce 93       	st	-X, r28
    1d34:	86 8d       	ldd	r24, Z+30	; 0x1e
    1d36:	76 80       	ldd	r7, Z+6	; 0x06
    1d38:	91 a9       	ldd	r25, Z+49	; 0x31
    1d3a:	bb a4       	ldd	r11, Y+43	; 0x2b
    1d3c:	6b 46       	sbci	r22, 0x6B	; 107
    1d3e:	63 93       	.word	0x9363	; ????
    1d40:	89 64       	ori	r24, 0x49	; 73
    1d42:	76 7f       	andi	r23, 0xF6	; 246
    1d44:	74 6d       	ori	r23, 0xD4	; 212
    1d46:	65 7b       	andi	r22, 0xB5	; 181
    1d48:	a3 a2       	std	Z+35, r10	; 0x23
    1d4a:	84 5d       	subi	r24, 0xD4	; 212
    1d4c:	55 5a       	subi	r21, 0xA5	; 165
    1d4e:	5d 66       	ori	r21, 0x6D	; 109
    1d50:	6a 72       	andi	r22, 0x2A	; 42
    1d52:	74 6c       	ori	r23, 0xC4	; 196
    1d54:	6a 8a       	std	Y+18, r6	; 0x12
    1d56:	a1 a3       	std	Z+33, r26	; 0x21
    1d58:	a2 a3       	std	Z+34, r26	; 0x22
    1d5a:	8f 80       	ldd	r8, Y+7	; 0x07
    1d5c:	83 9a       	sbi	0x10, 3	; 16
    1d5e:	98 8d       	ldd	r25, Y+24	; 0x18
    1d60:	a1 8b       	std	Z+17, r26	; 0x11
    1d62:	7d 8b       	std	Y+21, r23	; 0x15
    1d64:	8f 86       	std	Y+15, r8	; 0x0f
    1d66:	86 8c       	ldd	r8, Z+30	; 0x1e
    1d68:	7c 7a       	andi	r23, 0xAC	; 172
    1d6a:	79 60       	ori	r23, 0x09	; 9
    1d6c:	55 5d       	subi	r21, 0xD5	; 213
    1d6e:	6d 60       	ori	r22, 0x0D	; 13
    1d70:	63 81       	ldd	r22, Z+3	; 0x03
    1d72:	88 84       	ldd	r8, Y+8	; 0x08
    1d74:	68 58       	subi	r22, 0x88	; 136
    1d76:	6b 81       	ldd	r22, Y+3	; 0x03
    1d78:	83 85       	ldd	r24, Z+11	; 0x0b
    1d7a:	87 93       	lat	Z, r24
    1d7c:	8b 70       	andi	r24, 0x0B	; 11
    1d7e:	67 85       	ldd	r22, Z+15	; 0x0f
    1d80:	c5 d8       	rcall	.-3702   	; 0xf0c <__stack+0x60d>
    1d82:	a2 66       	ori	r26, 0x62	; 98
    1d84:	6b 67       	ori	r22, 0x7B	; 123
    1d86:	68 77       	andi	r22, 0x78	; 120
    1d88:	84 97       	sbiw	r24, 0x24	; 36
    1d8a:	8e 5d       	subi	r24, 0xDE	; 222
    1d8c:	2b 2b       	or	r18, r27
    1d8e:	52 89       	ldd	r21, Z+18	; 0x12
    1d90:	87 8c       	ldd	r8, Z+31	; 0x1f
    1d92:	a3 96       	adiw	r28, 0x23	; 35
    1d94:	83 6f       	ori	r24, 0xF3	; 243
    1d96:	6b 89       	ldd	r22, Y+19	; 0x13
    1d98:	b1 ae       	std	Z+57, r11	; 0x39
    1d9a:	8f 79       	andi	r24, 0x9F	; 159
    1d9c:	7f 92       	push	r7
    1d9e:	94 9b       	sbis	0x12, 4	; 18
    1da0:	ac a6       	std	Y+44, r10	; 0x2c
    1da2:	9e 8c       	ldd	r9, Y+30	; 0x1e
    1da4:	78 83       	st	Y, r23
    1da6:	80 7b       	andi	r24, 0xB0	; 176
    1da8:	8e 9e       	mul	r8, r30
    1daa:	9a 90       	ld	r9, -Y
    1dac:	85 77       	andi	r24, 0x75	; 117
    1dae:	5e 66       	ori	r21, 0x6E	; 110
    1db0:	72 63       	ori	r23, 0x32	; 50
    1db2:	80 8f       	std	Z+24, r24	; 0x18
    1db4:	7b 6a       	ori	r23, 0xAB	; 171
    1db6:	6d 68       	ori	r22, 0x8D	; 141
    1db8:	51 61       	ori	r21, 0x11	; 17
    1dba:	7d 74       	andi	r23, 0x4D	; 77
    1dbc:	5d 62       	ori	r21, 0x2D	; 45
    1dbe:	56 38       	cpi	r21, 0x86	; 134
    1dc0:	5c 83       	std	Y+4, r21	; 0x04
    1dc2:	89 94       	.word	0x9489	; ????
    1dc4:	8c 85       	ldd	r24, Y+12	; 0x0c
    1dc6:	86 8c       	ldd	r8, Z+30	; 0x1e
    1dc8:	a1 90       	ld	r10, Z+
    1dca:	87 a9       	ldd	r24, Z+55	; 0x37
    1dcc:	9d 81       	ldd	r25, Y+5	; 0x05
    1dce:	82 a2       	std	Z+34, r8	; 0x22
    1dd0:	a9 94       	.word	0x94a9	; ????
    1dd2:	83 71       	andi	r24, 0x13	; 19
    1dd4:	6d 7e       	andi	r22, 0xED	; 237
    1dd6:	95 88       	ldd	r9, Z+21	; 0x15
    1dd8:	8c 9c       	mul	r8, r12
    1dda:	93 62       	ori	r25, 0x23	; 35
    1ddc:	56 86       	std	Z+14, r5	; 0x0e
    1dde:	85 81       	ldd	r24, Z+5	; 0x05
    1de0:	84 80       	ldd	r8, Z+4	; 0x04
    1de2:	7a 70       	andi	r23, 0x0A	; 10
    1de4:	75 6c       	ori	r23, 0xC5	; 197
    1de6:	6c 7a       	andi	r22, 0xAC	; 172
    1de8:	76 60       	ori	r23, 0x06	; 6
    1dea:	60 8d       	ldd	r22, Z+24	; 0x18
    1dec:	a3 92       	.word	0x92a3	; ????
    1dee:	95 9b       	sbis	0x12, 5	; 18
    1df0:	83 6e       	ori	r24, 0xE3	; 227
    1df2:	7a 89       	ldd	r23, Y+18	; 0x12
    1df4:	96 99       	sbic	0x12, 6	; 18
    1df6:	8d 7f       	andi	r24, 0xFD	; 253
    1df8:	6f 7b       	andi	r22, 0xBF	; 191
    1dfa:	6d 61       	ori	r22, 0x1D	; 29
    1dfc:	79 75       	andi	r23, 0x59	; 89
    1dfe:	5d 60       	ori	r21, 0x0D	; 13
    1e00:	6b 6c       	ori	r22, 0xCB	; 203
    1e02:	7f 84       	ldd	r7, Y+15	; 0x0f
    1e04:	78 7d       	andi	r23, 0xD8	; 216
    1e06:	84 89       	ldd	r24, Z+20	; 0x14
    1e08:	86 7e       	andi	r24, 0xE6	; 230
    1e0a:	94 92       	xch	Z, r9
    1e0c:	79 7b       	andi	r23, 0xB9	; 185
    1e0e:	82 86       	std	Z+10, r8	; 0x0a
    1e10:	94 a0       	ldd	r9, Z+36	; 0x24
    1e12:	99 8f       	std	Y+25, r25	; 0x19
    1e14:	8f 95 8f 94 	call	0x63291e	; 0x63291e <__TEXT_REGION_LENGTH__+0x62a91e>
    1e18:	98 80       	ld	r9, Y
    1e1a:	6f 71       	andi	r22, 0x1F	; 31
    1e1c:	6f 54       	subi	r22, 0x4F	; 79
    1e1e:	55 6a       	ori	r21, 0xA5	; 165
    1e20:	78 73       	andi	r23, 0x38	; 56
    1e22:	5b 61       	ori	r21, 0x1B	; 27
    1e24:	71 88       	ldd	r7, Z+17	; 0x11
    1e26:	8d 74       	andi	r24, 0x4D	; 77
    1e28:	7f b2       	in	r7, 0x1f	; 31
    1e2a:	b7 8c       	ldd	r11, Z+31	; 0x1f
    1e2c:	89 94       	.word	0x9489	; ????
    1e2e:	9f a8       	ldd	r9, Y+55	; 0x37
    1e30:	a0 8b       	std	Z+16, r26	; 0x10
    1e32:	6f 76       	andi	r22, 0x6F	; 111
    1e34:	78 5b       	subi	r23, 0xB8	; 184
    1e36:	51 76       	andi	r21, 0x61	; 97
    1e38:	84 75       	andi	r24, 0x54	; 84
    1e3a:	6d 6f       	ori	r22, 0xFD	; 253
    1e3c:	6f 6b       	ori	r22, 0xBF	; 191
    1e3e:	76 6b       	ori	r23, 0xB6	; 182
    1e40:	62 6b       	ori	r22, 0xB2	; 178
    1e42:	85 7b       	andi	r24, 0xB5	; 181
    1e44:	6c 85       	ldd	r22, Y+12	; 0x0c
    1e46:	95 a3       	std	Z+37, r25	; 0x25
    1e48:	b3 b8       	out	0x03, r11	; 3
    1e4a:	ba b5       	in	r27, 0x2a	; 42
    1e4c:	ab 9e       	mul	r10, r27
    1e4e:	72 4f       	sbci	r23, 0xF2	; 242
    1e50:	51 66       	ori	r21, 0x61	; 97
    1e52:	6a 79       	andi	r22, 0x9A	; 154
    1e54:	7f 7a       	andi	r23, 0xAF	; 175
    1e56:	69 6f       	ori	r22, 0xF9	; 249
    1e58:	8c 8b       	std	Y+20, r24	; 0x14
    1e5a:	8d 86       	std	Y+13, r8	; 0x0d
    1e5c:	81 4f       	sbci	r24, 0xF1	; 241
    1e5e:	3f 5a       	subi	r19, 0xAF	; 175
    1e60:	55 72       	andi	r21, 0x25	; 37
    1e62:	9a a5       	ldd	r25, Y+42	; 0x2a
    1e64:	89 8e       	std	Y+25, r8	; 0x19
    1e66:	9b 77       	andi	r25, 0x7B	; 123
    1e68:	68 7b       	andi	r22, 0xB8	; 184
    1e6a:	8e 7d       	andi	r24, 0xDE	; 222
    1e6c:	6b 73       	andi	r22, 0x3B	; 59
    1e6e:	75 7c       	andi	r23, 0xC5	; 197
    1e70:	93 91       	.word	0x9193	; ????
    1e72:	87 9f       	mul	r24, r23
    1e74:	bb a9       	ldd	r27, Y+51	; 0x33
    1e76:	9c 93       	st	X, r25
    1e78:	7c 61       	ori	r23, 0x1C	; 28
    1e7a:	4e 57       	subi	r20, 0x7E	; 126
    1e7c:	74 9c       	mul	r7, r4
    1e7e:	9a 80       	ldd	r9, Y+2	; 0x02
    1e80:	74 87       	std	Z+12, r23	; 0x0c
    1e82:	8b 8c       	ldd	r8, Y+27	; 0x1b
    1e84:	97 a4       	ldd	r9, Z+47	; 0x2f
    1e86:	a7 92       	lat	Z, r10
    1e88:	6e 54       	subi	r22, 0x4E	; 78
    1e8a:	71 90       	ld	r7, Z+
    1e8c:	8d 7b       	andi	r24, 0xBD	; 189
    1e8e:	79 79       	andi	r23, 0x99	; 153
    1e90:	62 4d       	sbci	r22, 0xD2	; 210
    1e92:	4a 5a       	subi	r20, 0xAA	; 170
    1e94:	8c a5       	ldd	r24, Y+44	; 0x2c
    1e96:	83 6a       	ori	r24, 0xA3	; 163
    1e98:	7c 8d       	ldd	r23, Y+28	; 0x1c
    1e9a:	82 7c       	andi	r24, 0xC2	; 194
    1e9c:	8d 8c       	ldd	r8, Y+29	; 0x1d
    1e9e:	8d 89       	ldd	r24, Y+21	; 0x15
    1ea0:	6d 67       	ori	r22, 0x7D	; 125
    1ea2:	86 9f       	mul	r24, r22
    1ea4:	7b 61       	ori	r23, 0x1B	; 27
    1ea6:	6f 88       	ldd	r6, Y+23	; 0x17
    1ea8:	8a 6b       	ori	r24, 0xBA	; 186
    1eaa:	54 5b       	subi	r21, 0xB4	; 180
    1eac:	6f 69       	ori	r22, 0x9F	; 159
    1eae:	4e 5c       	subi	r20, 0xCE	; 206
    1eb0:	7d 8a       	std	Y+21, r7	; 0x15
    1eb2:	83 65       	ori	r24, 0x53	; 83
    1eb4:	64 7a       	andi	r22, 0xA4	; 164
    1eb6:	b6 c1       	rjmp	.+876    	; 0x2224 <__stack+0x1925>
    1eb8:	a5 b4       	in	r10, 0x25	; 37
    1eba:	c6 b8       	out	0x06, r12	; 6
    1ebc:	a2 9f       	mul	r26, r18
    1ebe:	99 9d       	mul	r25, r9
    1ec0:	a8 a4       	ldd	r10, Y+40	; 0x28
    1ec2:	7f 78       	andi	r23, 0x8F	; 143
    1ec4:	8f 94 77 71 	call	0x22e2ee	; 0x22e2ee <__TEXT_REGION_LENGTH__+0x2262ee>
    1ec8:	7b 74       	andi	r23, 0x4B	; 75
    1eca:	70 63       	ori	r23, 0x30	; 48
    1ecc:	5b 58       	subi	r21, 0x8B	; 139
    1ece:	5f 74       	andi	r21, 0x4F	; 79
    1ed0:	66 4e       	sbci	r22, 0xE6	; 230
    1ed2:	54 67       	ori	r21, 0x74	; 116
    1ed4:	74 6b       	ori	r23, 0xB4	; 180
    1ed6:	6e 68       	ori	r22, 0x8E	; 142
    1ed8:	60 69       	ori	r22, 0x90	; 144
    1eda:	8c 97       	sbiw	r24, 0x2c	; 44
    1edc:	9a a4       	ldd	r9, Y+42	; 0x2a
    1ede:	a5 95       	asr	r26
    1ee0:	65 71       	andi	r22, 0x15	; 21
    1ee2:	80 7f       	andi	r24, 0xF0	; 240
    1ee4:	95 a0       	ldd	r9, Z+37	; 0x25
    1ee6:	89 79       	andi	r24, 0x99	; 153
    1ee8:	8b 8b       	std	Y+19, r24	; 0x13
    1eea:	73 79       	andi	r23, 0x93	; 147
    1eec:	8a 7a       	andi	r24, 0xAA	; 170
    1eee:	68 6e       	ori	r22, 0xE8	; 232
    1ef0:	84 98       	cbi	0x10, 4	; 16
    1ef2:	af a6       	std	Y+47, r10	; 0x2f
    1ef4:	86 7d       	andi	r24, 0xD6	; 214
    1ef6:	8d 8f       	std	Y+29, r24	; 0x1d
    1ef8:	91 a5       	ldd	r25, Z+41	; 0x29
    1efa:	a7 9c       	mul	r10, r7
    1efc:	71 52       	subi	r23, 0x21	; 33
    1efe:	4d 5b       	subi	r20, 0xBD	; 189
    1f00:	6e 68       	ori	r22, 0x8E	; 142
    1f02:	61 78       	andi	r22, 0x81	; 129
    1f04:	83 76       	andi	r24, 0x63	; 99
    1f06:	77 78       	andi	r23, 0x87	; 135
    1f08:	8d 86       	std	Y+13, r8	; 0x0d
    1f0a:	70 53       	subi	r23, 0x30	; 48
    1f0c:	4c 69       	ori	r20, 0x9C	; 156
    1f0e:	72 6e       	ori	r23, 0xE2	; 226
    1f10:	72 8d       	ldd	r23, Z+26	; 0x1a
    1f12:	93 80       	ldd	r9, Z+3	; 0x03
    1f14:	7d 80       	ldd	r7, Y+5	; 0x05
    1f16:	98 bf       	out	0x38, r25	; 56
    1f18:	a3 70       	andi	r26, 0x03	; 3
    1f1a:	66 7a       	andi	r22, 0xA6	; 166
    1f1c:	7d 6b       	ori	r23, 0xBD	; 189
    1f1e:	72 76       	andi	r23, 0x62	; 98
    1f20:	6b 6e       	ori	r22, 0xEB	; 235
    1f22:	6f 6a       	ori	r22, 0xAF	; 175
    1f24:	88 bf       	out	0x38, r24	; 56
    1f26:	bd 90       	ld	r11, X+
    1f28:	80 8e       	std	Z+24, r8	; 0x18
    1f2a:	9b 8f       	std	Y+27, r25	; 0x1b
    1f2c:	81 82       	std	Z+1, r8	; 0x01
    1f2e:	a5 be       	out	0x35, r10	; 53
    1f30:	a0 83       	st	Z, r26
    1f32:	91 b6       	in	r9, 0x31	; 49
    1f34:	be 8f       	std	Y+30, r27	; 0x1e
    1f36:	62 5a       	subi	r22, 0xA2	; 162
    1f38:	85 8f       	std	Z+29, r24	; 0x1d
    1f3a:	58 43       	sbci	r21, 0x38	; 56
    1f3c:	4f 5d       	subi	r20, 0xDF	; 223
    1f3e:	4a 4b       	sbci	r20, 0xBA	; 186
    1f40:	62 71       	andi	r22, 0x12	; 18
    1f42:	89 86       	std	Y+9, r8	; 0x09
    1f44:	5e 49       	sbci	r21, 0x9E	; 158
    1f46:	7d ad       	ldd	r23, Y+61	; 0x3d
    1f48:	a5 98       	cbi	0x14, 5	; 20
    1f4a:	9e 91       	ld	r25, -X
    1f4c:	82 87       	std	Z+10, r24	; 0x0a
    1f4e:	7a 74       	andi	r23, 0x4A	; 74
    1f50:	94 a6       	std	Z+44, r9	; 0x2c
    1f52:	83 5d       	subi	r24, 0xD3	; 211
    1f54:	7a 8f       	std	Y+26, r23	; 0x1a
    1f56:	72 6b       	ori	r23, 0xB2	; 178
    1f58:	69 59       	subi	r22, 0x99	; 153
    1f5a:	66 6d       	ori	r22, 0xD6	; 214
    1f5c:	65 72       	andi	r22, 0x25	; 37
    1f5e:	86 8e       	std	Z+30, r8	; 0x1e
    1f60:	69 61       	ori	r22, 0x19	; 25
    1f62:	86 9f       	mul	r24, r22
    1f64:	9d 91       	ld	r25, X+
    1f66:	a1 aa       	std	Z+49, r10	; 0x31
    1f68:	a9 a4       	ldd	r10, Y+41	; 0x29
    1f6a:	a1 a8       	ldd	r10, Z+49	; 0x31
    1f6c:	b8 ae       	std	Y+56, r11	; 0x38
    1f6e:	7d 69       	ori	r23, 0x9D	; 157
    1f70:	7c 86       	std	Y+12, r7	; 0x0c
    1f72:	85 6b       	ori	r24, 0xB5	; 181
    1f74:	4c 4b       	sbci	r20, 0xBC	; 188
    1f76:	52 52       	subi	r21, 0x22	; 34
    1f78:	3d 45       	sbci	r19, 0x5D	; 93
    1f7a:	73 7a       	andi	r23, 0xA3	; 163
    1f7c:	67 4f       	sbci	r22, 0xF7	; 247
    1f7e:	40 64       	ori	r20, 0x40	; 64
    1f80:	7f 7a       	andi	r23, 0xAF	; 175
    1f82:	75 9a       	sbi	0x0e, 5	; 14
    1f84:	c2 bd       	out	0x22, r28	; 34
    1f86:	a4 91       	lpm	r26, Z
    1f88:	b1 d0       	rcall	.+354    	; 0x20ec <__stack+0x17ed>
    1f8a:	c9 8d       	ldd	r28, Y+25	; 0x19
    1f8c:	69 91       	ld	r22, Y+
    1f8e:	a4 68       	ori	r26, 0x84	; 132
    1f90:	39 5f       	subi	r19, 0xF9	; 249
    1f92:	89 a2       	std	Y+33, r8	; 0x21
    1f94:	87 68       	ori	r24, 0x87	; 135
    1f96:	6b 85       	ldd	r22, Y+11	; 0x0b
    1f98:	97 56       	subi	r25, 0x67	; 103
    1f9a:	45 74       	andi	r20, 0x45	; 69
    1f9c:	86 78       	andi	r24, 0x86	; 134
    1f9e:	61 72       	andi	r22, 0x21	; 33
    1fa0:	8e a9       	ldd	r24, Y+54	; 0x36
    1fa2:	b2 92       	st	-Z, r11
    1fa4:	92 c2       	rjmp	.+1316   	; 0x24ca <__stack+0x1bcb>
    1fa6:	d9 9d       	mul	r29, r9
    1fa8:	7e 91       	ld	r23, -X
    1faa:	84 8b       	std	Z+20, r24	; 0x14
    1fac:	92 6f       	ori	r25, 0xF2	; 242
    1fae:	4e 65       	ori	r20, 0x5E	; 94
    1fb0:	6f 54       	subi	r22, 0x4F	; 79
    1fb2:	4d 69       	ori	r20, 0x9D	; 157
    1fb4:	6c 5c       	subi	r22, 0xCC	; 204
    1fb6:	74 69       	ori	r23, 0x94	; 148
    1fb8:	40 41       	sbci	r20, 0x10	; 16
    1fba:	55 5b       	subi	r21, 0xB5	; 181
    1fbc:	69 92       	st	Y+, r6
    1fbe:	b2 99       	sbic	0x16, 2	; 22
    1fc0:	8f 9f       	mul	r24, r31
    1fc2:	92 8e       	std	Z+26, r9	; 0x1a
    1fc4:	b3 b4       	in	r11, 0x23	; 35
    1fc6:	93 89       	ldd	r25, Z+19	; 0x13
    1fc8:	75 67       	ori	r23, 0x75	; 117
    1fca:	73 88       	ldd	r7, Z+19	; 0x13
    1fcc:	86 6a       	ori	r24, 0xA6	; 166
    1fce:	6b 85       	ldd	r22, Y+11	; 0x0b
    1fd0:	75 5e       	subi	r23, 0xE5	; 229
    1fd2:	4b 55       	subi	r20, 0x5B	; 91
    1fd4:	68 6f       	ori	r22, 0xF8	; 248
    1fd6:	57 43       	sbci	r21, 0x37	; 55
    1fd8:	62 8e       	std	Z+26, r6	; 0x1a
    1fda:	b7 a6       	std	Z+47, r11	; 0x2f
    1fdc:	92 ad       	ldd	r25, Z+58	; 0x3a
    1fde:	c6 ca       	rjmp	.-2676   	; 0x156c <__stack+0xc6d>
    1fe0:	ae a2       	std	Y+38, r10	; 0x26
    1fe2:	c8 cf       	rjmp	.-112    	; 0x1f74 <__stack+0x1675>
    1fe4:	c9 8f       	std	Y+25, r28	; 0x19
    1fe6:	44 48       	sbci	r20, 0x84	; 132
    1fe8:	80 85       	ldd	r24, Z+8	; 0x08
    1fea:	45 44       	sbci	r20, 0x45	; 69
    1fec:	77 a1       	ldd	r23, Z+39	; 0x27
    1fee:	97 66       	ori	r25, 0x67	; 103
    1ff0:	40 4a       	sbci	r20, 0xA0	; 160
    1ff2:	78 7b       	andi	r23, 0xB8	; 184
    1ff4:	3b 2a       	or	r3, r27
    1ff6:	66 90       	elpm	r6, Z
    1ff8:	91 66       	ori	r25, 0x61	; 97
    1ffa:	72 b0       	in	r7, 0x02	; 2
    1ffc:	cb c3       	rjmp	.+1942   	; 0x2794 <__stack+0x1e95>
    1ffe:	7f 6e       	ori	r23, 0xEF	; 239
    2000:	a5 c7       	rjmp	.+3914   	; 0x2f4c <girl_scream+0x18a>
    2002:	ae 8c       	ldd	r10, Y+30	; 0x1e
    2004:	95 b3       	in	r25, 0x15	; 21
    2006:	b4 84       	ldd	r11, Z+12	; 0x0c
    2008:	5c 5d       	subi	r21, 0xDC	; 220
    200a:	89 a2       	std	Y+33, r8	; 0x21
    200c:	75 45       	sbci	r23, 0x55	; 85
    200e:	4e 75       	andi	r20, 0x5E	; 94
    2010:	6d 45       	sbci	r22, 0x5D	; 93
    2012:	3d 4c       	sbci	r19, 0xCD	; 205
    2014:	6a 76       	andi	r22, 0x6A	; 106
    2016:	64 56       	subi	r22, 0x64	; 100
    2018:	72 91       	ld	r23, -Z
    201a:	8b 70       	andi	r24, 0x0B	; 11
    201c:	7d a7       	std	Y+45, r23	; 0x2d
    201e:	98 80       	ld	r9, Y
    2020:	7d 7c       	andi	r23, 0xCD	; 205
    2022:	84 9a       	sbi	0x10, 4	; 16
    2024:	a8 b0       	in	r10, 0x08	; 8
    2026:	b6 b1       	in	r27, 0x06	; 6
    2028:	71 30       	cpi	r23, 0x01	; 1
    202a:	42 68       	ori	r20, 0x82	; 130
    202c:	80 83       	st	Z, r24
    202e:	8a 8d       	ldd	r24, Y+26	; 0x1a
    2030:	8f 83       	std	Y+7, r24	; 0x07
    2032:	69 6f       	ori	r22, 0xF9	; 249
    2034:	90 a2       	std	Z+32, r9	; 0x20
    2036:	83 66       	ori	r24, 0x63	; 99
    2038:	75 85       	ldd	r23, Z+13	; 0x0d
    203a:	91 91       	ld	r25, Z+
    203c:	7d 87       	std	Y+13, r23	; 0x0d
    203e:	92 8a       	std	Z+18, r9	; 0x12
    2040:	6a 5a       	subi	r22, 0xAA	; 170
    2042:	87 b6       	in	r8, 0x37	; 55
    2044:	b3 95       	inc	r27
    2046:	7d 84       	ldd	r7, Y+13	; 0x0d
    2048:	87 66       	ori	r24, 0x67	; 103
    204a:	47 53       	subi	r20, 0x37	; 55
    204c:	87 9c       	mul	r8, r7
    204e:	99 87       	std	Y+9, r25	; 0x09
    2050:	8b a5       	ldd	r24, Y+43	; 0x2b
    2052:	a8 8c       	ldd	r10, Y+24	; 0x18
    2054:	6a 7d       	andi	r22, 0xDA	; 218
    2056:	af 92       	push	r10
    2058:	3f 45       	sbci	r19, 0x5F	; 95
    205a:	66 81       	ldd	r22, Z+6	; 0x06
    205c:	80 5c       	subi	r24, 0xC0	; 192
    205e:	62 83       	std	Z+2, r22	; 0x02
    2060:	b0 91 52 6e 	lds	r27, 0x6E52	; 0x806e52 <__bss_end+0x6d4e>
    2064:	82 71       	andi	r24, 0x12	; 18
    2066:	54 4b       	sbci	r21, 0xB4	; 180
    2068:	5d 70       	andi	r21, 0x0D	; 13
    206a:	86 6d       	ori	r24, 0xD6	; 214
    206c:	67 8e       	std	Z+31, r6	; 0x1f
    206e:	b9 a6       	std	Y+41, r11	; 0x29
    2070:	7e 90       	ld	r7, -X
    2072:	91 88       	ldd	r9, Z+17	; 0x11
    2074:	90 7b       	andi	r25, 0xB0	; 176
    2076:	51 61       	ori	r21, 0x11	; 17
    2078:	8b 96       	adiw	r24, 0x2b	; 43
    207a:	8a 9b       	sbis	0x11, 2	; 17
    207c:	ad 90       	ld	r10, X+
    207e:	8f 8d       	ldd	r24, Y+31	; 0x1f
    2080:	61 4e       	sbci	r22, 0xE1	; 225
    2082:	6a 72       	andi	r22, 0x2A	; 42
    2084:	6c 88       	ldd	r6, Y+20	; 0x14
    2086:	a5 a5       	ldd	r26, Z+45	; 0x2d
    2088:	99 ad       	ldd	r25, Y+57	; 0x39
    208a:	b4 9b       	sbis	0x16, 4	; 22
    208c:	a8 a7       	std	Y+40, r26	; 0x28
    208e:	7a 64       	ori	r23, 0x4A	; 74
    2090:	57 48       	sbci	r21, 0x87	; 135
    2092:	5b 80       	ldd	r5, Y+3	; 0x03
    2094:	98 7a       	andi	r25, 0xA8	; 168
    2096:	5a 77       	andi	r21, 0x7A	; 122
    2098:	81 7b       	andi	r24, 0xB1	; 177
    209a:	6f 67       	ori	r22, 0x7F	; 127
    209c:	79 7a       	andi	r23, 0xA9	; 169
    209e:	59 32       	cpi	r21, 0x29	; 41
    20a0:	3d 67       	ori	r19, 0x7D	; 125
    20a2:	a7 be       	out	0x37, r10	; 55
    20a4:	a3 ad       	ldd	r26, Z+59	; 0x3b
    20a6:	bd c0       	rjmp	.+378    	; 0x2222 <__stack+0x1923>
    20a8:	99 69       	ori	r25, 0x99	; 153
    20aa:	87 98       	cbi	0x10, 7	; 16
    20ac:	99 77       	andi	r25, 0x79	; 121
    20ae:	32 26       	eor	r3, r18
    20b0:	48 87       	std	Y+8, r20	; 0x08
    20b2:	6b 56       	subi	r22, 0x6B	; 107
    20b4:	8a ba       	out	0x1a, r8	; 26
    20b6:	c2 8b       	std	Z+18, r28	; 0x12
    20b8:	5d 5d       	subi	r21, 0xDD	; 221
    20ba:	99 cd       	rjmp	.-1230   	; 0x1bee <__stack+0x12ef>
    20bc:	99 55       	subi	r25, 0x59	; 89
    20be:	80 b6       	in	r8, 0x30	; 48
    20c0:	b4 83       	std	Z+4, r27	; 0x04
    20c2:	67 99       	sbic	0x0c, 7	; 12
    20c4:	bf c9       	rjmp	.-3202   	; 0x1444 <__stack+0xb45>
    20c6:	7e 37       	cpi	r23, 0x7E	; 126
    20c8:	57 8b       	std	Z+23, r21	; 0x17
    20ca:	73 38       	cpi	r23, 0x83	; 131
    20cc:	33 52       	subi	r19, 0x23	; 35
    20ce:	8a 7f       	andi	r24, 0xFA	; 250
    20d0:	3a 36       	cpi	r19, 0x6A	; 106
    20d2:	83 c5       	rjmp	.+2822   	; 0x2bda <__stack+0x22db>
    20d4:	b3 78       	andi	r27, 0x83	; 131
    20d6:	77 85       	ldd	r23, Z+15	; 0x0f
    20d8:	8a 7b       	andi	r24, 0xBA	; 186
    20da:	55 57       	subi	r21, 0x75	; 117
    20dc:	9e d0       	rcall	.+316    	; 0x221a <__stack+0x191b>
    20de:	a6 5e       	subi	r26, 0xE6	; 230
    20e0:	68 a1       	ldd	r22, Y+32	; 0x20
    20e2:	ac 99       	sbic	0x15, 4	; 21
    20e4:	79 7d       	andi	r23, 0xD9	; 217
    20e6:	9b af       	std	Y+59, r25	; 0x3b
    20e8:	8d 77       	andi	r24, 0x7D	; 125
    20ea:	84 86       	std	Z+12, r8	; 0x0c
    20ec:	83 65       	ori	r24, 0x53	; 83
    20ee:	46 58       	subi	r20, 0x86	; 134
    20f0:	75 90       	lpm	r7, Z+
    20f2:	7a 72       	andi	r23, 0x2A	; 42
    20f4:	86 6c       	ori	r24, 0xC6	; 198
    20f6:	70 7e       	andi	r23, 0xE0	; 224
    20f8:	84 93       	xch	Z, r24
    20fa:	b3 b6       	in	r11, 0x33	; 51
    20fc:	8c 65       	ori	r24, 0x5C	; 92
    20fe:	69 6f       	ori	r22, 0xF9	; 249
    2100:	84 91       	lpm	r24, Z
    2102:	83 77       	andi	r24, 0x73	; 115
    2104:	7b 7e       	andi	r23, 0xEB	; 235
    2106:	61 5b       	subi	r22, 0xB1	; 177
    2108:	7d 88       	ldd	r7, Y+21	; 0x15
    210a:	77 86       	std	Z+15, r7	; 0x0f
    210c:	76 54       	subi	r23, 0x46	; 70
    210e:	56 7f       	andi	r21, 0xF6	; 246
    2110:	7a 68       	ori	r23, 0x8A	; 138
    2112:	7d 7b       	andi	r23, 0xBD	; 189
    2114:	5f 6d       	ori	r21, 0xDF	; 223
    2116:	8f 83       	std	Y+7, r24	; 0x07
    2118:	8f b8       	out	0x0f, r8	; 15
    211a:	bf 9c       	mul	r11, r15
    211c:	91 8d       	ldd	r25, Z+25	; 0x19
    211e:	73 73       	andi	r23, 0x33	; 51
    2120:	83 79       	andi	r24, 0x93	; 147
    2122:	78 a0       	ldd	r7, Y+32	; 0x20
    2124:	ad 8b       	std	Y+21, r26	; 0x15
    2126:	78 87       	std	Y+8, r23	; 0x08
    2128:	93 92       	.word	0x9293	; ????
    212a:	9e a4       	ldd	r9, Y+46	; 0x2e
    212c:	98 a0       	ldd	r9, Y+32	; 0x20
    212e:	96 63       	ori	r25, 0x36	; 54
    2130:	4b 5f       	subi	r20, 0xFB	; 251
    2132:	75 7a       	andi	r23, 0xA5	; 165
    2134:	81 92       	st	Z+, r8
    2136:	87 6b       	ori	r24, 0xB7	; 183
    2138:	43 32       	cpi	r20, 0x23	; 35
    213a:	4a 72       	andi	r20, 0x2A	; 42
    213c:	7c 6d       	ori	r23, 0xDC	; 220
    213e:	6c 5b       	subi	r22, 0xBC	; 188
    2140:	58 56       	subi	r21, 0x68	; 104
    2142:	6a 9d       	mul	r22, r10
    2144:	bf c4       	rjmp	.+2430   	; 0x2ac4 <__stack+0x21c5>
    2146:	8a 69       	ori	r24, 0x9A	; 154
    2148:	8c a7       	std	Y+44, r24	; 0x2c
    214a:	98 88       	ldd	r9, Y+16	; 0x10
    214c:	90 97       	sbiw	r26, 0x20	; 32
    214e:	9b 81       	ldd	r25, Y+3	; 0x03
    2150:	5a 6a       	ori	r21, 0xAA	; 170
    2152:	ae d3       	rcall	.+1884   	; 0x28b0 <__stack+0x1fb1>
    2154:	a6 6f       	ori	r26, 0xF6	; 246
    2156:	55 48       	sbci	r21, 0x85	; 133
    2158:	4a 46       	sbci	r20, 0x6A	; 106
    215a:	35 46       	sbci	r19, 0x65	; 101
    215c:	84 95       	.word	0x9584	; ????
    215e:	62 3b       	cpi	r22, 0xB2	; 178
    2160:	61 95       	neg	r22
    2162:	a2 a5       	ldd	r26, Z+42	; 0x2a
    2164:	9c ab       	std	Y+52, r25	; 0x34
    2166:	c4 b6       	in	r12, 0x34	; 52
    2168:	8f 83       	std	Y+7, r24	; 0x07
    216a:	a7 c1       	rjmp	.+846    	; 0x24ba <__stack+0x1bbb>
    216c:	c4 9b       	sbis	0x18, 4	; 24
    216e:	76 7d       	andi	r23, 0xD6	; 214
    2170:	85 83       	std	Z+5, r24	; 0x05
    2172:	57 53       	subi	r21, 0x37	; 55
    2174:	65 63       	ori	r22, 0x35	; 53
    2176:	65 6f       	ori	r22, 0xF5	; 245
    2178:	6d 78       	andi	r22, 0x8D	; 141
    217a:	9a 8c       	ldd	r9, Y+26	; 0x1a
    217c:	65 59       	subi	r22, 0x95	; 149
    217e:	64 74       	andi	r22, 0x44	; 68
    2180:	94 a5       	ldd	r25, Z+44	; 0x2c
    2182:	9a 8f       	std	Y+26, r25	; 0x1a
    2184:	a0 91 70 78 	lds	r26, 0x7870	; 0x807870 <__bss_end+0x776c>
    2188:	89 7a       	andi	r24, 0xA9	; 169
    218a:	7a 98       	cbi	0x0f, 2	; 15
    218c:	9c 8c       	ldd	r9, Y+28	; 0x1c
    218e:	95 a5       	ldd	r25, Z+45	; 0x2d
    2190:	7a 5e       	subi	r23, 0xEA	; 234
    2192:	66 53       	subi	r22, 0x36	; 54
    2194:	3b 5b       	subi	r19, 0xBB	; 187
    2196:	67 52       	subi	r22, 0x27	; 39
    2198:	60 80       	ld	r6, Z
    219a:	7e 66       	ori	r23, 0x6E	; 110
    219c:	84 9d       	mul	r24, r4
    219e:	a6 b9       	out	0x06, r26	; 6
    21a0:	b3 83       	std	Z+3, r27	; 0x03
    21a2:	6a 75       	andi	r22, 0x5A	; 90
    21a4:	6a 4d       	sbci	r22, 0xDA	; 218
    21a6:	51 7b       	andi	r21, 0xB1	; 177
    21a8:	8a 8d       	ldd	r24, Y+26	; 0x1a
    21aa:	8f 88       	ldd	r8, Y+23	; 0x17
    21ac:	8d a1       	ldd	r24, Y+37	; 0x25
    21ae:	9c 68       	ori	r25, 0x8C	; 140
    21b0:	4d 5e       	subi	r20, 0xED	; 237
    21b2:	58 4c       	sbci	r21, 0xC8	; 200
    21b4:	50 6f       	ori	r21, 0xF0	; 240
    21b6:	83 79       	andi	r24, 0x93	; 147
    21b8:	76 7b       	andi	r23, 0xB6	; 182
    21ba:	9a b5       	in	r25, 0x2a	; 42
    21bc:	b0 aa       	std	Z+48, r11	; 0x30
    21be:	b1 b0       	in	r11, 0x01	; 1
    21c0:	bd ad       	ldd	r27, Y+61	; 0x3d
    21c2:	b5 d6       	rcall	.+3434   	; 0x2f2e <girl_scream+0x16c>
    21c4:	d6 c5       	rjmp	.+2988   	; 0x2d72 <__stack+0x2473>
    21c6:	89 70       	andi	r24, 0x09	; 9
    21c8:	87 86       	std	Z+15, r8	; 0x0f
    21ca:	6f 72       	andi	r22, 0x2F	; 47
    21cc:	5d 44       	sbci	r21, 0x4D	; 77
    21ce:	41 3d       	cpi	r20, 0xD1	; 209
    21d0:	49 6d       	ori	r20, 0xD9	; 217
    21d2:	90 73       	andi	r25, 0x30	; 48
    21d4:	37 21       	and	r19, r7
    21d6:	26 30       	cpi	r18, 0x06	; 6
    21d8:	57 80       	ldd	r5, Z+7	; 0x07
    21da:	94 a1       	ldd	r25, Z+36	; 0x24
    21dc:	a4 95       	.word	0x95a4	; ????
    21de:	7d 91       	ld	r23, X+
    21e0:	c5 d8       	rcall	.-3702   	; 0x136c <__stack+0xa6d>
    21e2:	d3 ba       	out	0x13, r13	; 19
    21e4:	83 63       	ori	r24, 0x33	; 51
    21e6:	67 7c       	andi	r22, 0xC7	; 199
    21e8:	7c 72       	andi	r23, 0x2C	; 44
    21ea:	7d 77       	andi	r23, 0x7D	; 125
    21ec:	62 55       	subi	r22, 0x52	; 82
    21ee:	62 6c       	ori	r22, 0xC2	; 194
    21f0:	7c 7d       	andi	r23, 0xDC	; 220
    21f2:	67 6d       	ori	r22, 0xD7	; 215
    21f4:	76 73       	andi	r23, 0x36	; 54
    21f6:	60 79       	andi	r22, 0x90	; 144
    21f8:	95 91       	lpm	r25, Z+
    21fa:	88 89       	ldd	r24, Y+16	; 0x10
    21fc:	9e ba       	out	0x1e, r9	; 30
    21fe:	c8 b2       	in	r12, 0x18	; 24
    2200:	94 84       	ldd	r9, Z+12	; 0x0c
    2202:	83 6e       	ori	r24, 0xE3	; 227
    2204:	63 78       	andi	r22, 0x83	; 131
    2206:	7e 6c       	ori	r23, 0xCE	; 206
    2208:	53 43       	sbci	r21, 0x33	; 51
    220a:	53 79       	andi	r21, 0x93	; 147
    220c:	95 90       	lpm	r9, Z+
    220e:	87 8a       	std	Z+23, r8	; 0x17
    2210:	90 87       	std	Z+8, r25	; 0x08
    2212:	6e 64       	ori	r22, 0x4E	; 78
    2214:	7f ac       	ldd	r7, Y+63	; 0x3f
    2216:	b1 91       	ld	r27, Z+
    2218:	6d 75       	andi	r22, 0x5D	; 93
    221a:	8d 85       	ldd	r24, Y+13	; 0x0d
    221c:	7b 69       	ori	r23, 0x9B	; 155
    221e:	79 9e       	mul	r7, r25
    2220:	9b 8a       	std	Y+19, r9	; 0x13
    2222:	82 8f       	std	Z+26, r24	; 0x1a
    2224:	93 7b       	andi	r25, 0xB3	; 179
    2226:	60 51       	subi	r22, 0x10	; 16
    2228:	56 6c       	ori	r21, 0xC6	; 198
    222a:	6f 61       	ori	r22, 0x1F	; 31
    222c:	71 a1       	ldd	r23, Z+33	; 0x21
    222e:	a6 9e       	mul	r10, r22
    2230:	ac 9f       	mul	r26, r28
    2232:	97 96       	adiw	r26, 0x27	; 39
    2234:	9b 90       	.word	0x909b	; ????
    2236:	7b 7f       	andi	r23, 0xFB	; 251
    2238:	83 78       	andi	r24, 0x83	; 131
    223a:	80 74       	andi	r24, 0x40	; 64
    223c:	52 53       	subi	r21, 0x32	; 50
    223e:	83 99       	sbic	0x10, 3	; 16
    2240:	8b 8b       	std	Y+19, r24	; 0x13
    2242:	87 7b       	andi	r24, 0xB7	; 183
    2244:	6d 51       	subi	r22, 0x1D	; 29
    2246:	30 27       	eor	r19, r16
    2248:	56 70       	andi	r21, 0x06	; 6
    224a:	55 55       	subi	r21, 0x55	; 85
    224c:	72 9f       	mul	r23, r18
    224e:	9d 91       	ld	r25, X+
    2250:	77 74       	andi	r23, 0x47	; 71
    2252:	c1 c1       	rjmp	.+898    	; 0x25d6 <__stack+0x1cd7>
    2254:	7c 45       	sbci	r23, 0x5C	; 92
    2256:	4f 96       	adiw	r24, 0x1f	; 31
    2258:	a5 9b       	sbis	0x14, 5	; 20
    225a:	84 85       	ldd	r24, Z+12	; 0x0c
    225c:	b8 b7       	in	r27, 0x38	; 56
    225e:	8b 76       	andi	r24, 0x6B	; 107
    2260:	a4 d4       	rcall	.+2376   	; 0x2baa <__stack+0x22ab>
    2262:	c7 8c       	ldd	r12, Z+31	; 0x1f
    2264:	54 4b       	sbci	r21, 0xB4	; 180
    2266:	73 7e       	andi	r23, 0xE3	; 227
    2268:	6d 64       	ori	r22, 0x4D	; 77
    226a:	85 ac       	ldd	r8, Z+61	; 0x3d
    226c:	82 58       	subi	r24, 0x82	; 130
    226e:	4d 79       	andi	r20, 0x9D	; 157
    2270:	ad ab       	std	Y+53, r26	; 0x35
    2272:	8f 6f       	ori	r24, 0xFF	; 255
    2274:	78 8f       	std	Y+24, r23	; 0x18
    2276:	7b 5e       	subi	r23, 0xEB	; 235
    2278:	5d 7c       	andi	r21, 0xCD	; 205
    227a:	9c 91       	ld	r25, X
    227c:	76 64       	ori	r23, 0x46	; 70
    227e:	67 58       	subi	r22, 0x87	; 135
    2280:	4a 4f       	sbci	r20, 0xFA	; 250
    2282:	5d 87       	std	Y+13, r21	; 0x0d
    2284:	a4 af       	std	Z+60, r26	; 0x3c
    2286:	99 76       	andi	r25, 0x69	; 105
    2288:	6e 72       	andi	r22, 0x2E	; 46
    228a:	86 9d       	mul	r24, r6
    228c:	96 8f       	std	Z+30, r25	; 0x1e
    228e:	79 71       	andi	r23, 0x19	; 25
    2290:	7c 8c       	ldd	r7, Y+28	; 0x1c
    2292:	af aa       	std	Y+55, r10	; 0x37
    2294:	a8 8d       	ldd	r26, Y+24	; 0x18
    2296:	60 3c       	cpi	r22, 0xC0	; 192
    2298:	1e 36       	cpi	r17, 0x6E	; 110
    229a:	70 94       	com	r7
    229c:	89 6a       	ori	r24, 0xA9	; 169
    229e:	74 83       	std	Z+4, r23	; 0x04
    22a0:	74 76       	andi	r23, 0x64	; 100
    22a2:	8a c3       	rjmp	.+1812   	; 0x29b8 <__stack+0x20b9>
    22a4:	d6 bc       	out	0x26, r13	; 38
    22a6:	8f 76       	andi	r24, 0x6F	; 111
    22a8:	a2 bf       	out	0x32, r26	; 50
    22aa:	a0 78       	andi	r26, 0x80	; 128
    22ac:	71 99       	sbic	0x0e, 1	; 14
    22ae:	a6 86       	std	Z+14, r10	; 0x0e
    22b0:	6f 60       	ori	r22, 0x0F	; 15
    22b2:	8c a4       	ldd	r8, Y+44	; 0x2c
    22b4:	7e 49       	sbci	r23, 0x9E	; 158
    22b6:	49 75       	andi	r20, 0x59	; 89
    22b8:	7c 50       	subi	r23, 0x0C	; 12
    22ba:	2d 31       	cpi	r18, 0x1D	; 29
    22bc:	6e 9a       	sbi	0x0d, 6	; 13
    22be:	7b 53       	subi	r23, 0x3B	; 59
    22c0:	4d 7d       	andi	r20, 0xDD	; 221
    22c2:	7a 5f       	subi	r23, 0xFA	; 250
    22c4:	5f 8d       	ldd	r21, Y+31	; 0x1f
    22c6:	c4 c0       	rjmp	.+392    	; 0x2450 <__stack+0x1b51>
    22c8:	91 66       	ori	r25, 0x61	; 97
    22ca:	6b 91       	.word	0x916b	; ????
    22cc:	a9 a2       	std	Y+33, r10	; 0x21
    22ce:	9e a1       	ldd	r25, Y+38	; 0x26
    22d0:	a4 8d       	ldd	r26, Z+28	; 0x1c
    22d2:	72 6f       	ori	r23, 0xF2	; 242
    22d4:	8e a0       	ldd	r8, Y+38	; 0x26
    22d6:	8b 74       	andi	r24, 0x4B	; 75
    22d8:	63 73       	andi	r22, 0x33	; 51
    22da:	88 8a       	std	Y+16, r8	; 0x10
    22dc:	81 7a       	andi	r24, 0xA1	; 161
    22de:	85 87       	std	Z+13, r24	; 0x0d
    22e0:	7d 82       	std	Y+5, r7	; 0x05
    22e2:	87 85       	ldd	r24, Z+15	; 0x0f
    22e4:	7c 7f       	andi	r23, 0xFC	; 252
    22e6:	94 9b       	sbis	0x12, 4	; 18
    22e8:	a9 97       	sbiw	r28, 0x29	; 41
    22ea:	80 78       	andi	r24, 0x80	; 128
    22ec:	67 51       	subi	r22, 0x17	; 23
    22ee:	2e 39       	cpi	r18, 0x9E	; 158
    22f0:	66 70       	andi	r22, 0x06	; 6
    22f2:	4c 26       	eor	r4, r28
    22f4:	2d 5a       	subi	r18, 0xAD	; 173
    22f6:	7d 99       	sbic	0x0f, 5	; 15
    22f8:	a3 b9       	out	0x03, r26	; 3
    22fa:	c6 b4       	in	r12, 0x26	; 38
    22fc:	8e 72       	andi	r24, 0x2E	; 46
    22fe:	a0 ce       	rjmp	.-704    	; 0x2040 <__stack+0x1741>
    2300:	d0 aa       	std	Z+48, r13	; 0x30
    2302:	8f 89       	ldd	r24, Y+23	; 0x17
    2304:	85 71       	andi	r24, 0x15	; 21
    2306:	56 79       	andi	r21, 0x96	; 150
    2308:	a8 a1       	ldd	r26, Y+32	; 0x20
    230a:	7c 56       	subi	r23, 0x6C	; 108
    230c:	58 73       	andi	r21, 0x38	; 56
    230e:	7c 68       	ori	r23, 0x8C	; 140
    2310:	42 46       	sbci	r20, 0x62	; 98
    2312:	6d 77       	andi	r22, 0x7D	; 125
    2314:	64 6a       	ori	r22, 0xA4	; 164
    2316:	89 a6       	std	Y+41, r8	; 0x29
    2318:	b5 a9       	ldd	r27, Z+53	; 0x35
    231a:	a6 b6       	in	r10, 0x36	; 54
    231c:	d2 b1       	in	r29, 0x02	; 2
    231e:	80 87       	std	Z+8, r24	; 0x08
    2320:	8d 84       	ldd	r8, Y+13	; 0x0d
    2322:	79 77       	andi	r23, 0x79	; 121
    2324:	62 6a       	ori	r22, 0xA2	; 162
    2326:	7b 58       	subi	r23, 0x8B	; 139
    2328:	43 41       	sbci	r20, 0x13	; 19
    232a:	6a 73       	andi	r22, 0x3A	; 58
    232c:	49 3a       	cpi	r20, 0xA9	; 169
    232e:	2c 50       	subi	r18, 0x0C	; 12
    2330:	6c 78       	andi	r22, 0x8C	; 140
    2332:	7b 87       	std	Y+11, r23	; 0x0b
    2334:	a4 a8       	ldd	r10, Z+52	; 0x34
    2336:	8f 6c       	ori	r24, 0xCF	; 207
    2338:	89 ad       	ldd	r24, Y+57	; 0x39
    233a:	af 8e       	std	Y+31, r10	; 0x1f
    233c:	82 a2       	std	Z+34, r8	; 0x22
    233e:	c0 ba       	out	0x10, r12	; 16
    2340:	97 72       	andi	r25, 0x27	; 39
    2342:	70 8c       	ldd	r7, Z+24	; 0x18
    2344:	87 5f       	subi	r24, 0xF7	; 247
    2346:	5e 7e       	andi	r21, 0xEE	; 238
    2348:	82 76       	andi	r24, 0x62	; 98
    234a:	60 6d       	ori	r22, 0xD0	; 208
    234c:	8e aa       	std	Y+54, r8	; 0x36
    234e:	b3 87       	std	Z+11, r27	; 0x0b
    2350:	84 aa       	std	Z+52, r8	; 0x34
    2352:	a4 86       	std	Z+12, r10	; 0x0c
    2354:	8c a6       	std	Y+44, r8	; 0x2c
    2356:	a0 93 8c 6b 	sts	0x6B8C, r26	; 0x806b8c <__bss_end+0x6a88>
    235a:	4f 6f       	ori	r20, 0xFF	; 255
    235c:	8c 82       	std	Y+4, r8	; 0x04
    235e:	74 7d       	andi	r23, 0xD4	; 212
    2360:	76 65       	ori	r23, 0x56	; 86
    2362:	71 71       	andi	r23, 0x11	; 17
    2364:	55 40       	sbci	r21, 0x05	; 5
    2366:	59 5a       	subi	r21, 0xA9	; 169
    2368:	4d 61       	ori	r20, 0x1D	; 29
    236a:	7e 85       	ldd	r23, Y+14	; 0x0e
    236c:	99 b0       	in	r9, 0x09	; 9
    236e:	99 93       	st	Y+, r25
    2370:	a6 b4       	in	r10, 0x26	; 38
    2372:	96 64       	ori	r25, 0x46	; 70
    2374:	61 55       	subi	r22, 0x51	; 81
    2376:	53 5b       	subi	r21, 0xB3	; 179
    2378:	59 72       	andi	r21, 0x29	; 41
    237a:	98 b6       	in	r9, 0x38	; 56
    237c:	ab 9f       	mul	r26, r27
    237e:	a1 a8       	ldd	r10, Z+49	; 0x31
    2380:	af 94 69 5c 	call	0x2ab8d2	; 0x2ab8d2 <__TEXT_REGION_LENGTH__+0x2a38d2>
    2384:	66 6c       	ori	r22, 0xC6	; 198
    2386:	63 5d       	subi	r22, 0xD3	; 211
    2388:	68 86       	std	Y+8, r6	; 0x08
    238a:	a7 b8       	out	0x07, r10	; 7
    238c:	a4 90       	lpm	r10, Z
    238e:	a1 a3       	std	Z+33, r26	; 0x21
    2390:	89 5f       	subi	r24, 0xF9	; 249
    2392:	50 69       	ori	r21, 0x90	; 144
    2394:	77 4d       	sbci	r23, 0xD7	; 215
    2396:	32 2d       	mov	r19, r2
    2398:	3d 6b       	ori	r19, 0xBD	; 189
    239a:	7f 80       	ldd	r7, Y+7	; 0x07
    239c:	82 a1       	ldd	r24, Z+34	; 0x22
    239e:	b4 95       	.word	0x95b4	; ????
    23a0:	76 93       	lac	Z, r23
    23a2:	c4 b8       	out	0x04, r12	; 4
    23a4:	90 6b       	ori	r25, 0xB0	; 176
    23a6:	55 6b       	ori	r21, 0xB5	; 181
    23a8:	8a 8c       	ldd	r8, Y+26	; 0x1a
    23aa:	75 86       	std	Z+13, r7	; 0x0d
    23ac:	b1 b5       	in	r27, 0x21	; 33
    23ae:	a6 a5       	ldd	r26, Z+46	; 0x2e
    23b0:	a5 99       	sbic	0x14, 5	; 20
    23b2:	8e 6b       	ori	r24, 0xBE	; 190
    23b4:	3f 3c       	cpi	r19, 0xCF	; 207
    23b6:	49 6f       	ori	r20, 0xF9	; 249
    23b8:	79 6e       	ori	r23, 0xE9	; 233
    23ba:	71 74       	andi	r23, 0x41	; 65
    23bc:	9a a3       	std	Y+34, r25	; 0x22
    23be:	9e 94 96 a0 	call	0x25412c	; 0x25412c <__TEXT_REGION_LENGTH__+0x24c12c>
    23c2:	a2 8f       	std	Z+26, r26	; 0x1a
    23c4:	7a 8d       	ldd	r23, Y+26	; 0x1a
    23c6:	9f 98       	cbi	0x13, 7	; 19
    23c8:	54 35       	cpi	r21, 0x54	; 84
    23ca:	4f 5f       	subi	r20, 0xFF	; 255
    23cc:	6a 5b       	subi	r22, 0xBA	; 186
    23ce:	53 65       	ori	r21, 0x53	; 83
    23d0:	7c 8b       	std	Y+20, r23	; 0x14
    23d2:	6e 76       	andi	r22, 0x6E	; 110
    23d4:	93 a0       	ldd	r9, Z+35	; 0x23
    23d6:	9c 72       	andi	r25, 0x2C	; 44
    23d8:	55 62       	ori	r21, 0x25	; 37
    23da:	93 9b       	sbis	0x12, 3	; 18
    23dc:	73 7d       	andi	r23, 0xD3	; 211
    23de:	a9 b3       	in	r26, 0x19	; 25
    23e0:	aa 9f       	mul	r26, r26
    23e2:	9b 9e       	mul	r9, r27
    23e4:	ab 9c       	mul	r10, r11
    23e6:	6a 52       	subi	r22, 0x2A	; 42
    23e8:	74 7b       	andi	r23, 0xB4	; 180
    23ea:	50 4a       	sbci	r21, 0xA0	; 160
    23ec:	5e 80       	ldd	r5, Y+6	; 0x06
    23ee:	83 73       	andi	r24, 0x33	; 51
    23f0:	60 66       	ori	r22, 0x60	; 96
    23f2:	7b 7e       	andi	r23, 0xEB	; 235
    23f4:	77 6d       	ori	r23, 0xD7	; 215
    23f6:	80 97       	sbiw	r24, 0x20	; 32
    23f8:	8a 5f       	subi	r24, 0xFA	; 250
    23fa:	56 80       	ldd	r5, Z+6	; 0x06
    23fc:	a9 a7       	std	Y+41, r26	; 0x29
    23fe:	97 8f       	std	Z+31, r25	; 0x1f
    2400:	9b be       	out	0x3b, r9	; 59
    2402:	bf 9b       	sbis	0x17, 7	; 23
    2404:	91 a1       	ldd	r25, Z+33	; 0x21
    2406:	9b 78       	andi	r25, 0x8B	; 139
    2408:	4c 42       	sbci	r20, 0x2C	; 44
    240a:	58 67       	ori	r21, 0x78	; 120
    240c:	7d 61       	ori	r23, 0x1D	; 29
    240e:	58 7c       	andi	r21, 0xC8	; 200
    2410:	74 62       	ori	r23, 0x24	; 36
    2412:	65 7c       	andi	r22, 0xC5	; 197
    2414:	74 6d       	ori	r23, 0xD4	; 212
    2416:	72 66       	ori	r23, 0x62	; 98
    2418:	59 7f       	andi	r21, 0xF9	; 249
    241a:	a9 ab       	std	Y+49, r26	; 0x31
    241c:	a1 ab       	std	Z+49, r26	; 0x31
    241e:	ac a4       	ldd	r10, Y+44	; 0x2c
    2420:	b7 bd       	out	0x27, r27	; 39
    2422:	ad 96       	adiw	r28, 0x2d	; 45
    2424:	a8 90       	.word	0x90a8	; ????
    2426:	60 5d       	subi	r22, 0xD0	; 208
    2428:	7a 88       	ldd	r7, Y+18	; 0x12
    242a:	88 86       	std	Y+8, r8	; 0x08
    242c:	64 5a       	subi	r22, 0xA4	; 164
    242e:	66 71       	andi	r22, 0x16	; 22
    2430:	5f 43       	sbci	r21, 0x3F	; 63
    2432:	56 62       	ori	r21, 0x26	; 38
    2434:	67 72       	andi	r22, 0x27	; 39
    2436:	62 61       	ori	r22, 0x12	; 18
    2438:	72 96       	adiw	r30, 0x12	; 18
    243a:	99 8d       	ldd	r25, Y+25	; 0x19
    243c:	87 81       	ldd	r24, Z+7	; 0x07
    243e:	90 7c       	andi	r25, 0xC0	; 192
    2440:	62 72       	andi	r22, 0x22	; 34
    2442:	90 a7       	std	Z+40, r25	; 0x28
    2444:	9b 81       	ldd	r25, Y+3	; 0x03
    2446:	72 73       	andi	r23, 0x32	; 50
    2448:	7a 7e       	andi	r23, 0xEA	; 234
    244a:	7b 7b       	andi	r23, 0xBB	; 187
    244c:	9e a8       	ldd	r9, Y+54	; 0x36
    244e:	96 72       	andi	r25, 0x26	; 38
    2450:	65 8c       	ldd	r6, Z+29	; 0x1d
    2452:	a8 97       	sbiw	r28, 0x28	; 40
    2454:	74 63       	ori	r23, 0x34	; 52
    2456:	79 95       	.word	0x9579	; ????
    2458:	91 84       	ldd	r9, Z+9	; 0x09
    245a:	83 a1       	ldd	r24, Z+35	; 0x23
    245c:	b2 8b       	std	Z+18, r27	; 0x12
    245e:	58 5e       	subi	r21, 0xE8	; 232
    2460:	8e 91       	ld	r24, -X
    2462:	74 66       	ori	r23, 0x64	; 100
    2464:	56 6c       	ori	r21, 0xC6	; 198
    2466:	87 7e       	andi	r24, 0xE7	; 231
    2468:	62 61       	ori	r22, 0x12	; 18
    246a:	78 77       	andi	r23, 0x78	; 120
    246c:	69 6f       	ori	r22, 0xF9	; 249
    246e:	82 8a       	std	Z+18, r8	; 0x12
    2470:	90 7b       	andi	r25, 0xB0	; 176
    2472:	5b 61       	ori	r21, 0x1B	; 27
    2474:	75 97       	sbiw	r30, 0x15	; 21
    2476:	aa 9a       	sbi	0x15, 2	; 21
    2478:	8f 89       	ldd	r24, Y+23	; 0x17
    247a:	9d 9e       	mul	r9, r29
    247c:	8c 84       	ldd	r8, Y+12	; 0x0c
    247e:	87 92       	lat	Z, r8
    2480:	95 8a       	std	Z+21, r9	; 0x15
    2482:	83 99       	sbic	0x10, 3	; 16
    2484:	b4 b4       	in	r11, 0x24	; 36
    2486:	77 45       	sbci	r23, 0x57	; 87
    2488:	56 6a       	ori	r21, 0xA6	; 166
    248a:	66 54       	subi	r22, 0x46	; 70
    248c:	44 4b       	sbci	r20, 0xB4	; 180
    248e:	69 7e       	andi	r22, 0xE9	; 233
    2490:	6f 74       	andi	r22, 0x4F	; 79
    2492:	93 b0       	in	r9, 0x03	; 3
    2494:	aa 7d       	andi	r26, 0xDA	; 218
    2496:	56 63       	ori	r21, 0x36	; 54
    2498:	97 a1       	ldd	r25, Z+39	; 0x27
    249a:	70 76       	andi	r23, 0x60	; 96
    249c:	a6 aa       	std	Z+54, r10	; 0x36
    249e:	94 76       	andi	r25, 0x64	; 100
    24a0:	70 73       	andi	r23, 0x30	; 48
    24a2:	98 a9       	ldd	r25, Y+48	; 0x30
    24a4:	83 6d       	ori	r24, 0xD3	; 211
    24a6:	97 8d       	ldd	r25, Z+31	; 0x1f
    24a8:	5e 5a       	subi	r21, 0xAE	; 174
    24aa:	78 91       	.word	0x9178	; ????
    24ac:	81 70       	andi	r24, 0x01	; 1
    24ae:	5b 5c       	subi	r21, 0xCB	; 203
    24b0:	76 8c       	ldd	r7, Z+30	; 0x1e
    24b2:	82 7e       	andi	r24, 0xE2	; 226
    24b4:	8f aa       	std	Y+55, r8	; 0x37
    24b6:	97 72       	andi	r25, 0x27	; 39
    24b8:	60 70       	andi	r22, 0x00	; 0
    24ba:	95 7b       	andi	r25, 0xB5	; 181
    24bc:	72 76       	andi	r23, 0x62	; 98
    24be:	79 79       	andi	r23, 0x99	; 153
    24c0:	73 79       	andi	r23, 0x93	; 147
    24c2:	77 98       	cbi	0x0e, 7	; 14
    24c4:	cb ad       	ldd	r28, Y+59	; 0x3b
    24c6:	79 7a       	andi	r23, 0xA9	; 169
    24c8:	86 8e       	std	Z+30, r8	; 0x1e
    24ca:	8a 82       	std	Y+2, r8	; 0x02
    24cc:	74 72       	andi	r23, 0x24	; 36
    24ce:	8c 6c       	ori	r24, 0xCC	; 204
    24d0:	2e 3b       	cpi	r18, 0xBE	; 190
    24d2:	80 a6       	std	Z+40, r8	; 0x28
    24d4:	90 80       	ld	r9, Z
    24d6:	6d 67       	ori	r22, 0x7D	; 125
    24d8:	7f 7c       	andi	r23, 0xCF	; 207
    24da:	67 6d       	ori	r22, 0xD7	; 215
    24dc:	a6 af       	std	Z+62, r26	; 0x3e
    24de:	7e 67       	ori	r23, 0x7E	; 126
    24e0:	6a 82       	std	Y+2, r6	; 0x02
    24e2:	97 b1       	in	r25, 0x07	; 7
    24e4:	b2 a4       	ldd	r11, Z+42	; 0x2a
    24e6:	b2 b4       	in	r11, 0x22	; 34
    24e8:	90 66       	ori	r25, 0x60	; 96
    24ea:	61 67       	ori	r22, 0x71	; 113
    24ec:	77 8d       	ldd	r23, Z+31	; 0x1f
    24ee:	6a 41       	sbci	r22, 0x1A	; 26
    24f0:	5e 8e       	std	Y+30, r5	; 0x1e
    24f2:	95 82       	std	Z+5, r9	; 0x05
    24f4:	79 8a       	std	Y+17, r7	; 0x11
    24f6:	96 8b       	std	Z+22, r25	; 0x16
    24f8:	63 2f       	mov	r22, r19
    24fa:	4b 7f       	andi	r20, 0xFB	; 251
    24fc:	92 6f       	ori	r25, 0xF2	; 242
    24fe:	4d 6a       	ori	r20, 0xAD	; 173
    2500:	90 9e       	mul	r9, r16
    2502:	80 88       	ldd	r8, Z+16	; 0x10
    2504:	ab a8       	ldd	r10, Y+51	; 0x33
    2506:	96 74       	andi	r25, 0x46	; 70
    2508:	4b 4a       	sbci	r20, 0xAB	; 171
    250a:	76 a6       	std	Z+46, r7	; 0x2e
    250c:	89 60       	ori	r24, 0x09	; 9
    250e:	81 9b       	sbis	0x10, 1	; 16
    2510:	8f 92       	push	r8
    2512:	ae b7       	in	r26, 0x3e	; 62
    2514:	b7 b2       	in	r11, 0x17	; 23
    2516:	84 4f       	sbci	r24, 0xF4	; 244
    2518:	5b 81       	ldd	r21, Y+3	; 0x03
    251a:	82 70       	andi	r24, 0x02	; 2
    251c:	6d 78       	andi	r22, 0x8D	; 141
    251e:	85 83       	std	Z+5, r24	; 0x05
    2520:	82 8b       	std	Z+18, r24	; 0x12
    2522:	8b 9b       	sbis	0x11, 3	; 17
    2524:	93 70       	andi	r25, 0x03	; 3
    2526:	62 5e       	subi	r22, 0xE2	; 226
    2528:	78 87       	std	Y+8, r23	; 0x08
    252a:	77 66       	ori	r23, 0x67	; 103
    252c:	67 6f       	ori	r22, 0xF7	; 247
    252e:	5f 64       	ori	r21, 0x4F	; 79
    2530:	6d 6a       	ori	r22, 0xAD	; 173
    2532:	79 8d       	ldd	r23, Y+25	; 0x19
    2534:	97 85       	ldd	r25, Z+15	; 0x0f
    2536:	7b 7f       	andi	r23, 0xFB	; 251
    2538:	80 92 90 68 	sts	0x6890, r8	; 0x806890 <__bss_end+0x678c>
    253c:	62 7d       	andi	r22, 0xD2	; 210
    253e:	8d 86       	std	Y+13, r8	; 0x0d
    2540:	6b 6c       	ori	r22, 0xCB	; 203
    2542:	82 8b       	std	Z+18, r24	; 0x12
    2544:	8d 73       	andi	r24, 0x3D	; 61
    2546:	6d 9a       	sbi	0x0d, 5	; 13
    2548:	af a2       	std	Y+39, r10	; 0x27
    254a:	7f 86       	std	Y+15, r7	; 0x0f
    254c:	b4 c5       	rjmp	.+2920   	; 0x30b6 <girl_scream+0x2f4>
    254e:	ae 91       	ld	r26, -X	; undefined
    2550:	9c 9a       	sbi	0x13, 4	; 19
    2552:	85 61       	ori	r24, 0x15	; 21
    2554:	3d 3e       	cpi	r19, 0xED	; 237
    2556:	56 8b       	std	Z+22, r21	; 0x16
    2558:	82 4b       	sbci	r24, 0xB2	; 178
    255a:	64 99       	sbic	0x0c, 4	; 12
    255c:	97 8a       	std	Z+23, r9	; 0x17
    255e:	99 9f       	mul	r25, r25
    2560:	8c 82       	std	Y+4, r8	; 0x04
    2562:	6f 3c       	cpi	r22, 0xCF	; 207
    2564:	37 6a       	ori	r19, 0xA7	; 167
    2566:	8d 83       	std	Y+5, r24	; 0x05
    2568:	79 81       	ldd	r23, Y+1	; 0x01
    256a:	9b 9c       	mul	r9, r11
    256c:	93 9f       	mul	r25, r19
    256e:	98 8d       	ldd	r25, Y+24	; 0x18
    2570:	79 59       	subi	r23, 0x99	; 153
    2572:	50 54       	subi	r21, 0x40	; 64
    2574:	67 84       	ldd	r6, Z+15	; 0x0f
    2576:	82 7e       	andi	r24, 0xE2	; 226
    2578:	7e 92       	st	-X, r7
    257a:	8e 88       	ldd	r8, Y+22	; 0x16
    257c:	9b a3       	std	Y+35, r25	; 0x23
    257e:	9c 90       	ld	r9, X
    2580:	90 7e       	andi	r25, 0xE0	; 224
    2582:	71 77       	andi	r23, 0x71	; 113
    2584:	89 8b       	std	Y+17, r24	; 0x11
    2586:	a4 9c       	mul	r10, r4
    2588:	8c 96       	adiw	r24, 0x2c	; 44
    258a:	a9 b2       	in	r10, 0x19	; 25
    258c:	8b 71       	andi	r24, 0x1B	; 27
    258e:	63 53       	subi	r22, 0x33	; 51
    2590:	47 43       	sbci	r20, 0x37	; 55
    2592:	2f 3d       	cpi	r18, 0xDF	; 223
    2594:	58 5e       	subi	r21, 0xE8	; 232
    2596:	68 75       	andi	r22, 0x58	; 88
    2598:	97 b4       	in	r9, 0x27	; 39
    259a:	b2 a9       	ldd	r27, Z+50	; 0x32
    259c:	97 84       	ldd	r9, Z+15	; 0x0f
    259e:	77 58       	subi	r23, 0x87	; 135
    25a0:	52 5e       	subi	r21, 0xE2	; 226
    25a2:	69 74       	andi	r22, 0x49	; 73
    25a4:	89 9b       	sbis	0x11, 1	; 17
    25a6:	9f a2       	std	Y+39, r9	; 0x27
    25a8:	a4 9f       	mul	r26, r20
    25aa:	86 84       	ldd	r8, Z+14	; 0x0e
    25ac:	86 72       	andi	r24, 0x26	; 38
    25ae:	6c 7f       	andi	r22, 0xFC	; 252
    25b0:	77 63       	ori	r23, 0x37	; 55
    25b2:	63 66       	ori	r22, 0x63	; 99
    25b4:	71 79       	andi	r23, 0x91	; 145
    25b6:	86 86       	std	Z+14, r8	; 0x0e
    25b8:	95 b3       	in	r25, 0x15	; 21
    25ba:	b4 b0       	in	r11, 0x04	; 4
    25bc:	9f 8e       	std	Y+31, r9	; 0x1f
    25be:	8e 8d       	ldd	r24, Y+30	; 0x1e
    25c0:	7f 6b       	ori	r23, 0xBF	; 191
    25c2:	74 93       	xch	Z, r23
    25c4:	af 95 81 8f 	call	0x6b1f02	; 0x6b1f02 <__TEXT_REGION_LENGTH__+0x6a9f02>
    25c8:	82 78       	andi	r24, 0x82	; 130
    25ca:	63 41       	sbci	r22, 0x13	; 19
    25cc:	3e 5b       	subi	r19, 0xBE	; 190
    25ce:	68 53       	subi	r22, 0x38	; 56
    25d0:	4e 7a       	andi	r20, 0xAE	; 174
    25d2:	95 7b       	andi	r25, 0xB5	; 181
    25d4:	6d 7b       	andi	r22, 0xBD	; 189
    25d6:	80 8c       	ldd	r8, Z+24	; 0x18
    25d8:	87 60       	ori	r24, 0x07	; 7
    25da:	4e 64       	ori	r20, 0x4E	; 78
    25dc:	89 90       	ld	r8, Y+
    25de:	88 9d       	mul	r24, r8
    25e0:	b9 b4       	in	r11, 0x29	; 41
    25e2:	96 68       	ori	r25, 0x86	; 134
    25e4:	57 80       	ldd	r5, Z+7	; 0x07
    25e6:	97 88       	ldd	r9, Z+23	; 0x17
    25e8:	6d 6e       	ori	r22, 0xED	; 237
    25ea:	86 84       	ldd	r8, Z+14	; 0x0e
    25ec:	77 83       	std	Z+7, r23	; 0x07
    25ee:	87 8d       	ldd	r24, Z+31	; 0x1f
    25f0:	96 87       	std	Z+14, r25	; 0x0e
    25f2:	88 9b       	sbis	0x11, 0	; 17
    25f4:	aa ad       	ldd	r26, Y+58	; 0x3a
    25f6:	99 6d       	ori	r25, 0xD9	; 217
    25f8:	48 51       	subi	r20, 0x18	; 24
    25fa:	75 87       	std	Z+13, r23	; 0x0d
    25fc:	90 9d       	mul	r25, r0
    25fe:	8c 7a       	andi	r24, 0xAC	; 172
    2600:	76 68       	ori	r23, 0x86	; 134
    2602:	5b 64       	ori	r21, 0x4B	; 75
    2604:	99 96       	adiw	r26, 0x29	; 41
    2606:	5f 48       	sbci	r21, 0x8F	; 143
    2608:	52 63       	ori	r21, 0x32	; 50
    260a:	76 78       	andi	r23, 0x86	; 134
    260c:	6e 72       	andi	r22, 0x2E	; 46
    260e:	88 98       	cbi	0x11, 0	; 17
    2610:	98 b0       	in	r9, 0x08	; 8
    2612:	c1 d6       	rcall	.+3458   	; 0x3396 <girl_scream+0x5d4>
    2614:	b1 61       	ori	r27, 0x11	; 17
    2616:	3d 36       	cpi	r19, 0x6D	; 109
    2618:	52 7c       	andi	r21, 0xC2	; 194
    261a:	8f a9       	ldd	r24, Y+55	; 0x37
    261c:	b6 ad       	ldd	r27, Z+62	; 0x3e
    261e:	a4 8e       	std	Z+28, r10	; 0x1c
    2620:	9d ba       	out	0x1d, r9	; 29
    2622:	be 97       	sbiw	r30, 0x2e	; 46
    2624:	70 4c       	sbci	r23, 0xC0	; 192
    2626:	27 26       	eor	r2, r23
    2628:	27 3d       	cpi	r18, 0xD7	; 215
    262a:	5e 7f       	andi	r21, 0xFE	; 254
    262c:	9c 9b       	sbis	0x13, 4	; 19
    262e:	8a 89       	ldd	r24, Y+18	; 0x12
    2630:	a0 a9       	ldd	r26, Z+48	; 0x30
    2632:	9b 80       	ldd	r9, Y+3	; 0x03
    2634:	76 5e       	subi	r23, 0xE6	; 230
    2636:	47 52       	subi	r20, 0x27	; 39
    2638:	56 65       	ori	r21, 0x56	; 86
    263a:	8e b5       	in	r24, 0x2e	; 46
    263c:	b1 94       	neg	r11
    263e:	8d a3       	std	Y+37, r24	; 0x25
    2640:	a8 a6       	std	Y+40, r10	; 0x28
    2642:	96 79       	andi	r25, 0x96	; 150
    2644:	71 57       	subi	r23, 0x71	; 113
    2646:	3d 38       	cpi	r19, 0x8D	; 141
    2648:	41 73       	andi	r20, 0x31	; 49
    264a:	8e 99       	sbic	0x11, 6	; 17
    264c:	b1 bc       	out	0x21, r11	; 33
    264e:	d2 c9       	rjmp	.-3164   	; 0x19f4 <__stack+0x10f5>
    2650:	a2 82       	std	Z+2, r10	; 0x02
    2652:	7d 8d       	ldd	r23, Y+29	; 0x1d
    2654:	83 57       	subi	r24, 0x73	; 115
    2656:	38 40       	sbci	r19, 0x08	; 8
    2658:	54 68       	ori	r21, 0x84	; 132
    265a:	8a 87       	std	Y+10, r24	; 0x0a
    265c:	77 9a       	sbi	0x0e, 7	; 14
    265e:	b4 98       	cbi	0x16, 4	; 22
    2660:	72 70       	andi	r23, 0x02	; 2
    2662:	88 86       	std	Y+8, r8	; 0x08
    2664:	77 5c       	subi	r23, 0xC7	; 199
    2666:	47 6a       	ori	r20, 0xA7	; 167
    2668:	8e 8d       	ldd	r24, Y+30	; 0x1e
    266a:	89 a7       	std	Y+41, r24	; 0x29
    266c:	d1 cc       	rjmp	.-1630   	; 0x2010 <__stack+0x1711>
    266e:	90 55       	subi	r25, 0x50	; 80
    2670:	46 61       	ori	r20, 0x16	; 22
    2672:	83 7e       	andi	r24, 0xE3	; 227
    2674:	6e 77       	andi	r22, 0x7E	; 126
    2676:	80 70       	andi	r24, 0x00	; 0
    2678:	57 60       	ori	r21, 0x07	; 7
    267a:	8d b7       	in	r24, 0x3d	; 61
    267c:	c2 a1       	ldd	r28, Z+34	; 0x22
    267e:	6e 4d       	sbci	r22, 0xDE	; 222
    2680:	4b 56       	subi	r20, 0x6B	; 107
    2682:	59 72       	andi	r21, 0x29	; 41
    2684:	9a a3       	std	Y+34, r25	; 0x22
    2686:	91 74       	andi	r25, 0x41	; 65
    2688:	76 81       	ldd	r23, Z+6	; 0x06
    268a:	98 b6       	in	r9, 0x38	; 56
    268c:	a8 80       	ld	r10, Y
    268e:	5e 56       	subi	r21, 0x6E	; 110
    2690:	59 6a       	ori	r21, 0xA9	; 169
    2692:	79 85       	ldd	r23, Y+9	; 0x09
    2694:	8a a5       	ldd	r24, Y+42	; 0x2a
    2696:	b2 9b       	sbis	0x16, 2	; 22
    2698:	97 9f       	mul	r25, r23
    269a:	ad 95 69 5b 	jmp	0x6ab6d2	; 0x6ab6d2 <__TEXT_REGION_LENGTH__+0x6a36d2>
    269e:	4e 49       	sbci	r20, 0x9E	; 158
    26a0:	4d 4b       	sbci	r20, 0xBD	; 189
    26a2:	5f 73       	andi	r21, 0x3F	; 63
    26a4:	8a 83       	std	Y+2, r24	; 0x02
    26a6:	76 8d       	ldd	r23, Z+30	; 0x1e
    26a8:	ae b5       	in	r26, 0x2e	; 46
    26aa:	96 81       	ldd	r25, Z+6	; 0x06
    26ac:	6e 5f       	subi	r22, 0xFE	; 254
    26ae:	66 69       	ori	r22, 0x96	; 150
    26b0:	75 86       	std	Z+13, r7	; 0x0d
    26b2:	9d b2       	in	r9, 0x1d	; 29
    26b4:	b0 a2       	std	Z+32, r11	; 0x20
    26b6:	9d ad       	ldd	r25, Y+61	; 0x3d
    26b8:	a4 99       	sbic	0x14, 4	; 20
    26ba:	81 71       	andi	r24, 0x11	; 17
    26bc:	60 44       	sbci	r22, 0x40	; 64
    26be:	49 4b       	sbci	r20, 0xB9	; 185
    26c0:	59 7a       	andi	r21, 0xA9	; 169
    26c2:	95 8b       	std	Z+21, r25	; 0x15
    26c4:	71 7f       	andi	r23, 0xF1	; 241
    26c6:	a3 a6       	std	Z+43, r10	; 0x2b
    26c8:	a6 91       	elpm	r26, Z
    26ca:	7d 74       	andi	r23, 0x4D	; 77
    26cc:	54 3a       	cpi	r21, 0xA4	; 164
    26ce:	32 4c       	sbci	r19, 0xC2	; 194
    26d0:	85 a0       	ldd	r8, Z+37	; 0x25
    26d2:	a0 a5       	ldd	r26, Z+40	; 0x28
    26d4:	9f b5       	in	r25, 0x2f	; 47
    26d6:	aa 80       	ldd	r10, Y+2	; 0x02
    26d8:	67 67       	ori	r22, 0x77	; 119
    26da:	6d 67       	ori	r22, 0x7D	; 125
    26dc:	4b 32       	cpi	r20, 0x2B	; 43
    26de:	4a 64       	ori	r20, 0x4A	; 74
    26e0:	84 ae       	std	Z+60, r8	; 0x3c
    26e2:	ac ad       	ldd	r26, Y+60	; 0x3c
    26e4:	c9 c1       	rjmp	.+914    	; 0x2a78 <__stack+0x2179>
    26e6:	97 6f       	ori	r25, 0xF7	; 247
    26e8:	77 96       	adiw	r30, 0x17	; 23
    26ea:	99 8f       	std	Y+25, r25	; 0x19
    26ec:	71 67       	ori	r23, 0x71	; 113
    26ee:	8d a5       	ldd	r24, Y+45	; 0x2d
    26f0:	9b 8f       	std	Y+27, r25	; 0x1b
    26f2:	a0 b5       	in	r26, 0x20	; 32
    26f4:	98 53       	subi	r25, 0x38	; 56
    26f6:	25 23       	and	r18, r21
    26f8:	46 6a       	ori	r20, 0xA6	; 166
    26fa:	55 49       	sbci	r21, 0x95	; 149
    26fc:	65 6f       	ori	r22, 0xF5	; 245
    26fe:	5f 46       	sbci	r21, 0x6F	; 111
    2700:	65 aa       	std	Z+53, r6	; 0x35
    2702:	d0 d0       	rcall	.+416    	; 0x28a4 <__stack+0x1fa5>
    2704:	a7 74       	andi	r26, 0x47	; 71
    2706:	5c 5d       	subi	r21, 0xDC	; 220
    2708:	74 87       	std	Z+12, r23	; 0x0c
    270a:	99 b3       	in	r25, 0x19	; 25
    270c:	b5 98       	cbi	0x16, 5	; 22
    270e:	7d 85       	ldd	r23, Y+13	; 0x0d
    2710:	92 9d       	mul	r25, r2
    2712:	98 8d       	ldd	r25, Y+24	; 0x18
    2714:	82 6e       	ori	r24, 0xE2	; 226
    2716:	66 5a       	subi	r22, 0xA6	; 166
    2718:	53 67       	ori	r21, 0x73	; 115
    271a:	7e 80       	ldd	r7, Y+6	; 0x06
    271c:	84 7d       	andi	r24, 0xD4	; 212
    271e:	87 9d       	mul	r24, r7
    2720:	96 95       	lsr	r25
    2722:	99 a0       	ldd	r9, Y+33	; 0x21
    2724:	a0 85       	ldd	r26, Z+8	; 0x08
    2726:	6a 53       	subi	r22, 0x3A	; 58
    2728:	5c 7d       	andi	r21, 0xDC	; 220
    272a:	7a 65       	ori	r23, 0x5A	; 90
    272c:	6c 89       	ldd	r22, Y+20	; 0x14
    272e:	92 81       	ldd	r25, Z+2	; 0x02
    2730:	74 79       	andi	r23, 0x94	; 148
    2732:	7b 81       	ldd	r23, Y+3	; 0x03
    2734:	7b 70       	andi	r23, 0x0B	; 11
    2736:	74 85       	ldd	r23, Z+12	; 0x0c
    2738:	81 6a       	ori	r24, 0xA1	; 161
    273a:	68 81       	ld	r22, Y
    273c:	94 86       	std	Z+12, r9	; 0x0c
    273e:	7e 78       	andi	r23, 0x8E	; 142
    2740:	67 60       	ori	r22, 0x07	; 7
    2742:	78 8a       	std	Y+16, r7	; 0x10
    2744:	82 87       	std	Z+10, r24	; 0x0a
    2746:	95 93       	las	Z, r25
    2748:	81 7e       	andi	r24, 0xE1	; 225
    274a:	87 8c       	ldd	r8, Z+31	; 0x1f
    274c:	9a 9b       	sbis	0x13, 2	; 19
    274e:	80 64       	ori	r24, 0x40	; 64
    2750:	6b 71       	andi	r22, 0x1B	; 27
    2752:	88 a2       	std	Y+32, r8	; 0x20
    2754:	9d a2       	std	Y+37, r9	; 0x25
    2756:	a5 97       	sbiw	r28, 0x25	; 37
    2758:	78 6b       	ori	r23, 0xB8	; 184
    275a:	8c 93       	st	X, r24
    275c:	9a 8b       	std	Y+18, r25	; 0x12
    275e:	50 39       	cpi	r21, 0x90	; 144
    2760:	4b 6f       	ori	r20, 0xFB	; 251
    2762:	64 6e       	ori	r22, 0xE4	; 228
    2764:	95 a0       	ldd	r9, Z+37	; 0x25
    2766:	8d 67       	ori	r24, 0x7D	; 125
    2768:	69 7e       	andi	r22, 0xE9	; 233
    276a:	8d 90       	ld	r8, X+
    276c:	77 5d       	subi	r23, 0xD7	; 215
    276e:	51 4a       	sbci	r21, 0xA1	; 161
    2770:	60 69       	ori	r22, 0x90	; 144
    2772:	72 91       	ld	r23, -Z
    2774:	ac 9b       	sbis	0x15, 4	; 21
    2776:	70 98       	cbi	0x0e, 0	; 14
    2778:	ca cd       	rjmp	.-1132   	; 0x230e <__stack+0x1a0f>
    277a:	b1 a2       	std	Z+33, r11	; 0x21
    277c:	99 56       	subi	r25, 0x69	; 105
    277e:	3d 4a       	sbci	r19, 0xAD	; 173
    2780:	5b 80       	ldd	r5, Y+3	; 0x03
    2782:	ab c3       	rjmp	.+1878   	; 0x2eda <girl_scream+0x118>
    2784:	a4 9a       	sbi	0x14, 4	; 20
    2786:	b1 a7       	std	Z+41, r27	; 0x29
    2788:	87 8b       	std	Z+23, r24	; 0x17
    278a:	96 81       	ldd	r25, Z+6	; 0x06
    278c:	44 28       	or	r4, r4
    278e:	2a 44       	sbci	r18, 0x4A	; 74
    2790:	7e 8c       	ldd	r7, Y+30	; 0x1e
    2792:	86 90       	elpm	r8, Z
    2794:	9d a0       	ldd	r9, Y+37	; 0x25
    2796:	9a 91       	ld	r25, -Y
    2798:	97 88       	ldd	r9, Z+23	; 0x17
    279a:	84 5e       	subi	r24, 0xE4	; 228
    279c:	2d 2e       	mov	r2, r29
    279e:	3f 53       	subi	r19, 0x3F	; 63
    27a0:	5e 78       	andi	r21, 0x8E	; 142
    27a2:	92 9d       	mul	r25, r2
    27a4:	a1 9f       	mul	r26, r17
    27a6:	89 82       	std	Y+1, r8	; 0x01
    27a8:	83 78       	andi	r24, 0x83	; 131
    27aa:	63 52       	subi	r22, 0x23	; 35
    27ac:	4b 4d       	sbci	r20, 0xDB	; 219
    27ae:	6c 8c       	ldd	r6, Y+28	; 0x1c
    27b0:	91 b2       	in	r9, 0x11	; 17
    27b2:	db e3       	ldi	r29, 0x3B	; 59
    27b4:	d0 bd       	out	0x20, r29	; 32
    27b6:	b7 ae       	std	Z+63, r11	; 0x3f
    27b8:	a5 8f       	std	Z+29, r26	; 0x1d
    27ba:	70 5a       	subi	r23, 0xA0	; 160
    27bc:	6a 77       	andi	r22, 0x7A	; 122
    27be:	73 72       	andi	r23, 0x23	; 35
    27c0:	7b 83       	std	Y+3, r23	; 0x03
    27c2:	7b 7a       	andi	r23, 0xAB	; 171
    27c4:	76 6b       	ori	r23, 0xB6	; 182
    27c6:	69 65       	ori	r22, 0x59	; 89
    27c8:	63 5d       	subi	r22, 0xD3	; 211
    27ca:	56 5b       	subi	r21, 0xB6	; 182
    27cc:	64 69       	ori	r22, 0x94	; 148
    27ce:	5d 66       	ori	r21, 0x6D	; 109
    27d0:	76 90       	elpm	r7, Z
    27d2:	9a 93       	st	-Y, r25
    27d4:	81 76       	andi	r24, 0x61	; 97
    27d6:	82 8c       	ldd	r8, Z+26	; 0x1a
    27d8:	86 73       	andi	r24, 0x36	; 54
    27da:	83 a6       	std	Z+43, r8	; 0x2b
    27dc:	b3 9e       	mul	r11, r19
    27de:	94 ae       	std	Z+60, r9	; 0x3c
    27e0:	bc b8       	out	0x0c, r11	; 12
    27e2:	ac 7c       	andi	r26, 0xCC	; 204
    27e4:	5a 63       	ori	r21, 0x3A	; 58
    27e6:	7b 6c       	ori	r23, 0xCB	; 203
    27e8:	50 67       	ori	r21, 0x70	; 112
    27ea:	7d 86       	std	Y+13, r7	; 0x0d
    27ec:	6f 6c       	ori	r22, 0xCF	; 207
    27ee:	7e 88       	ldd	r7, Y+22	; 0x16
    27f0:	85 69       	ori	r24, 0x95	; 149
    27f2:	4f 47       	sbci	r20, 0x7F	; 127
    27f4:	49 66       	ori	r20, 0x69	; 105
    27f6:	7e 8b       	std	Y+22, r23	; 0x16
    27f8:	ac bd       	out	0x2c, r26	; 44
    27fa:	af 73       	andi	r26, 0x3F	; 63
    27fc:	77 b3       	in	r23, 0x17	; 23
    27fe:	c3 ae       	std	Z+59, r12	; 0x3b
    2800:	9d a0       	ldd	r9, Y+37	; 0x25
    2802:	6c 3f       	cpi	r22, 0xFC	; 252
    2804:	4d 63       	ori	r20, 0x3D	; 61
    2806:	78 a3       	std	Y+32, r23	; 0x20
    2808:	c3 9f       	mul	r28, r19
    280a:	6c 6d       	ori	r22, 0xDC	; 220
    280c:	67 49       	sbci	r22, 0x97	; 151
    280e:	59 75       	andi	r21, 0x59	; 89
    2810:	86 67       	ori	r24, 0x76	; 118
    2812:	47 45       	sbci	r20, 0x57	; 87
    2814:	4a 6d       	ori	r20, 0xDA	; 218
    2816:	85 7d       	andi	r24, 0xD5	; 213
    2818:	80 92 91 88 	sts	0x8891, r8	; 0x808891 <__bss_end+0x878d>
    281c:	7f 8d       	ldd	r23, Y+31	; 0x1f
    281e:	94 a9       	ldd	r25, Z+52	; 0x34
    2820:	ae 7a       	andi	r26, 0xAE	; 174
    2822:	62 75       	andi	r22, 0x52	; 82
    2824:	7e 76       	andi	r23, 0x6E	; 110
    2826:	7b 92       	.word	0x927b	; ????
    2828:	a6 bb       	out	0x16, r26	; 22
    282a:	d1 c9       	rjmp	.-3166   	; 0x1bce <__stack+0x12cf>
    282c:	b6 a2       	std	Z+38, r11	; 0x26
    282e:	90 77       	andi	r25, 0x70	; 112
    2830:	5d 56       	subi	r21, 0x6D	; 109
    2832:	5b 6a       	ori	r21, 0xAB	; 171
    2834:	7e 6d       	ori	r23, 0xDE	; 222
    2836:	67 83       	std	Z+7, r22	; 0x07
    2838:	91 8a       	std	Z+17, r9	; 0x11
    283a:	7d 85       	ldd	r23, Y+13	; 0x0d
    283c:	7b 70       	andi	r23, 0x0B	; 11
    283e:	5e 39       	cpi	r21, 0x9E	; 158
    2840:	2a 43       	sbci	r18, 0x3A	; 58
    2842:	65 75       	andi	r22, 0x55	; 85
    2844:	83 94       	inc	r8
    2846:	9b 94       	des	9
    2848:	96 99       	sbic	0x12, 6	; 18
    284a:	96 98       	cbi	0x12, 6	; 18
    284c:	97 98       	cbi	0x12, 7	; 18
    284e:	8d 7b       	andi	r24, 0xBD	; 189
    2850:	71 75       	andi	r23, 0x51	; 81
    2852:	90 81       	ld	r25, Z
    2854:	6a 7c       	andi	r22, 0xCA	; 202
    2856:	96 96       	adiw	r26, 0x26	; 38
    2858:	72 64       	ori	r23, 0x42	; 66
    285a:	50 5b       	subi	r21, 0xB0	; 176
    285c:	8f 8f       	std	Y+31, r24	; 0x1f
    285e:	69 66       	ori	r22, 0x69	; 105
    2860:	82 9b       	sbis	0x10, 2	; 16
    2862:	94 87       	std	Z+12, r25	; 0x0c
    2864:	a8 c2       	rjmp	.+1360   	; 0x2db6 <__stack+0x24b7>
    2866:	d3 aa       	std	Z+51, r13	; 0x33
    2868:	74 68       	ori	r23, 0x84	; 132
    286a:	74 98       	cbi	0x0e, 4	; 14
    286c:	89 64       	ori	r24, 0x49	; 73
    286e:	53 79       	andi	r21, 0x93	; 147
    2870:	94 6f       	ori	r25, 0xF4	; 244
    2872:	2d 2e       	mov	r2, r29
    2874:	72 9b       	sbis	0x0e, 2	; 14
    2876:	80 57       	subi	r24, 0x70	; 112
    2878:	59 6d       	ori	r21, 0xD9	; 217
    287a:	86 6b       	ori	r24, 0xB6	; 182
    287c:	43 44       	sbci	r20, 0x43	; 67
    287e:	84 bb       	out	0x14, r24	; 20
    2880:	8e 4e       	sbci	r24, 0xEE	; 238
    2882:	68 a8       	ldd	r6, Y+48	; 0x30
    2884:	be af       	std	Y+62, r27	; 0x3e
    2886:	9b 99       	sbic	0x13, 3	; 19
    2888:	9e a1       	ldd	r25, Y+38	; 0x26
    288a:	81 56       	subi	r24, 0x61	; 97
    288c:	5b a3       	std	Y+35, r21	; 0x23
    288e:	c0 a7       	std	Z+40, r28	; 0x28
    2890:	7f 6a       	ori	r23, 0xAF	; 175
    2892:	8f 9a       	sbi	0x11, 7	; 17
    2894:	8e 7d       	andi	r24, 0xDE	; 222
    2896:	7f 9e       	mul	r7, r31
    2898:	b4 8a       	std	Z+20, r11	; 0x14
    289a:	56 58       	subi	r21, 0x86	; 134
    289c:	86 a0       	ldd	r8, Z+38	; 0x26
    289e:	7d 70       	andi	r23, 0x0D	; 13
    28a0:	89 a2       	std	Y+33, r8	; 0x21
    28a2:	af 93       	push	r26
    28a4:	59 60       	ori	r21, 0x09	; 9
    28a6:	73 6a       	ori	r23, 0xA3	; 163
    28a8:	45 26       	eor	r4, r21
    28aa:	58 87       	std	Y+8, r21	; 0x08
    28ac:	82 66       	ori	r24, 0x62	; 98
    28ae:	5d 7c       	andi	r21, 0xCD	; 205
    28b0:	89 76       	andi	r24, 0x69	; 105
    28b2:	67 65       	ori	r22, 0x57	; 87
    28b4:	84 8c       	ldd	r8, Z+28	; 0x1c
    28b6:	70 5e       	subi	r23, 0xE0	; 224
    28b8:	5a 6b       	ori	r21, 0xBA	; 186
    28ba:	82 88       	ldd	r8, Z+18	; 0x12
    28bc:	85 98       	cbi	0x10, 5	; 16
    28be:	a8 9e       	mul	r10, r24
    28c0:	8c 95 9b 9e 	jmp	0x613d36	; 0x613d36 <__TEXT_REGION_LENGTH__+0x60bd36>
    28c4:	a6 9b       	sbis	0x14, 6	; 20
    28c6:	84 6c       	ori	r24, 0xC4	; 196
    28c8:	67 78       	andi	r22, 0x87	; 135
    28ca:	6c 81       	ldd	r22, Y+4	; 0x04
    28cc:	a2 ad       	ldd	r26, Z+58	; 0x3a
    28ce:	be b2       	in	r11, 0x1e	; 30
    28d0:	ae 97       	sbiw	r28, 0x2e	; 46
    28d2:	83 83       	std	Z+3, r24	; 0x03
    28d4:	6b 51       	subi	r22, 0x1B	; 27
    28d6:	5c 5d       	subi	r21, 0xDC	; 220
    28d8:	5f 69       	ori	r21, 0x9F	; 159
    28da:	6a 7f       	andi	r22, 0xFA	; 250
    28dc:	9b 96       	adiw	r26, 0x2b	; 43
    28de:	86 83       	std	Z+6, r24	; 0x06
    28e0:	85 6e       	ori	r24, 0xE5	; 229
    28e2:	61 6e       	ori	r22, 0xE1	; 225
    28e4:	6e 6a       	ori	r22, 0xAE	; 174
    28e6:	64 5f       	subi	r22, 0xF4	; 244
    28e8:	53 58       	subi	r21, 0x83	; 131
    28ea:	6f 7c       	andi	r22, 0xCF	; 207
    28ec:	6e 7c       	andi	r22, 0xCE	; 206
    28ee:	8e 9d       	mul	r24, r14
    28f0:	95 80       	ldd	r9, Z+5	; 0x05
    28f2:	81 92       	st	Z+, r8
    28f4:	9f 88       	ldd	r9, Y+23	; 0x17
    28f6:	82 88       	ldd	r8, Z+18	; 0x12
    28f8:	8f 8c       	ldd	r8, Y+31	; 0x1f
    28fa:	82 6a       	ori	r24, 0xA2	; 162
    28fc:	5e 7e       	andi	r21, 0xEE	; 238
    28fe:	a4 a0       	ldd	r10, Z+36	; 0x24
    2900:	84 93       	xch	Z, r24
    2902:	9f 93       	push	r25
    2904:	8f 75       	andi	r24, 0x5F	; 95
    2906:	72 7c       	andi	r23, 0xC2	; 194
    2908:	88 7e       	andi	r24, 0xE8	; 232
    290a:	5e 62       	ori	r21, 0x2E	; 46
    290c:	76 97       	sbiw	r30, 0x16	; 22
    290e:	b3 ad       	ldd	r27, Z+59	; 0x3b
    2910:	98 a3       	std	Y+32, r25	; 0x20
    2912:	b9 ac       	ldd	r11, Y+57	; 0x39
    2914:	6b 4e       	sbci	r22, 0xEB	; 235
    2916:	5f 72       	andi	r21, 0x2F	; 47
    2918:	78 64       	ori	r23, 0x48	; 72
    291a:	4e 59       	subi	r20, 0x9E	; 158
    291c:	88 85       	ldd	r24, Y+8	; 0x08
    291e:	56 3f       	cpi	r21, 0xF6	; 246
    2920:	72 9e       	mul	r7, r18
    2922:	8c 60       	ori	r24, 0x0C	; 12
    2924:	39 42       	sbci	r19, 0x29	; 41
    2926:	54 65       	ori	r21, 0x54	; 84
    2928:	6d 75       	andi	r22, 0x5D	; 93
    292a:	9d c7       	rjmp	.+3898   	; 0x3866 <girl_scream+0xaa4>
    292c:	ae 76       	andi	r26, 0x6E	; 110
    292e:	4d 6c       	ori	r20, 0xCD	; 205
    2930:	b0 c9       	rjmp	.-3232   	; 0x1c92 <__stack+0x1393>
    2932:	c5 b6       	in	r12, 0x35	; 53
    2934:	b9 b6       	in	r11, 0x39	; 57
    2936:	92 52       	subi	r25, 0x22	; 34
    2938:	38 61       	ori	r19, 0x18	; 24
    293a:	a4 9f       	mul	r26, r20
    293c:	71 6a       	ori	r23, 0xA1	; 161
    293e:	7f 8f       	std	Y+31, r23	; 0x1f
    2940:	93 91       	.word	0x9193	; ????
    2942:	92 af       	std	Z+58, r25	; 0x3a
    2944:	a9 82       	std	Y+1, r10	; 0x01
    2946:	47 44       	sbci	r20, 0x47	; 71
    2948:	79 98       	cbi	0x0f, 1	; 15
    294a:	94 87       	std	Z+12, r25	; 0x0c
    294c:	8a 94       	dec	r8
    294e:	78 56       	subi	r23, 0x68	; 104
    2950:	55 5c       	subi	r21, 0xC5	; 197
    2952:	82 8c       	ldd	r8, Z+26	; 0x1a
    2954:	7f 60       	ori	r23, 0x0F	; 15
    2956:	52 5a       	subi	r21, 0xA2	; 162
    2958:	60 57       	subi	r22, 0x70	; 112
    295a:	62 87       	std	Z+10, r22	; 0x0a
    295c:	95 8d       	ldd	r25, Z+29	; 0x1d
    295e:	79 77       	andi	r23, 0x79	; 121
    2960:	66 71       	andi	r22, 0x16	; 22
    2962:	79 7d       	andi	r23, 0xD9	; 217
    2964:	81 8d       	ldd	r24, Z+25	; 0x19
    2966:	a4 8c       	ldd	r10, Z+28	; 0x1c
    2968:	73 81       	ldd	r23, Z+3	; 0x03
    296a:	8a a1       	ldd	r24, Y+34	; 0x22
    296c:	b8 c4       	rjmp	.+2416   	; 0x32de <girl_scream+0x51c>
    296e:	c8 a7       	std	Y+40, r28	; 0x28
    2970:	9b 7e       	andi	r25, 0xEB	; 235
    2972:	5e 68       	ori	r21, 0x8E	; 142
    2974:	7a 86       	std	Y+10, r7	; 0x0a
    2976:	89 84       	ldd	r8, Y+9	; 0x09
    2978:	85 8d       	ldd	r24, Z+29	; 0x1d
    297a:	92 92       	st	-Z, r9
    297c:	8d 9f       	mul	r24, r29
    297e:	9c 7f       	andi	r25, 0xFC	; 252
    2980:	74 62       	ori	r23, 0x24	; 36
    2982:	48 30       	cpi	r20, 0x08	; 8
    2984:	32 3e       	cpi	r19, 0xE2	; 226
    2986:	4a 63       	ori	r20, 0x3A	; 58
    2988:	77 67       	ori	r23, 0x77	; 119
    298a:	60 7b       	andi	r22, 0xB0	; 176
    298c:	9e b4       	in	r9, 0x2e	; 46
    298e:	a9 9e       	mul	r10, r25
    2990:	8e 88       	ldd	r8, Y+22	; 0x16
    2992:	6d 4c       	sbci	r22, 0xCD	; 205
    2994:	55 77       	andi	r21, 0x75	; 117
    2996:	99 b0       	in	r9, 0x09	; 9
    2998:	a7 8b       	std	Z+23, r26	; 0x17
    299a:	8a 97       	sbiw	r24, 0x2a	; 42
    299c:	9a 7a       	andi	r25, 0xAA	; 170
    299e:	74 8a       	std	Z+20, r7	; 0x14
    29a0:	80 72       	andi	r24, 0x20	; 32
    29a2:	57 4f       	sbci	r21, 0xF7	; 247
    29a4:	63 7f       	andi	r22, 0xF3	; 243
    29a6:	95 84       	ldd	r9, Z+13	; 0x0d
    29a8:	76 79       	andi	r23, 0x96	; 150
    29aa:	80 98       	cbi	0x10, 0	; 16
    29ac:	ac a3       	std	Y+36, r26	; 0x24
    29ae:	ab c3       	rjmp	.+1878   	; 0x3106 <girl_scream+0x344>
    29b0:	ca 97       	sbiw	r24, 0x3a	; 58
    29b2:	5e 67       	ori	r21, 0x7E	; 126
    29b4:	76 7f       	andi	r23, 0xF6	; 246
    29b6:	7a 74       	andi	r23, 0x4A	; 74
    29b8:	7e 9d       	mul	r23, r14
    29ba:	af 97       	sbiw	r28, 0x2f	; 47
    29bc:	64 5c       	subi	r22, 0xC4	; 196
    29be:	9b a4       	ldd	r9, Y+43	; 0x2b
    29c0:	7a 46       	sbci	r23, 0x6A	; 106
    29c2:	2c 28       	or	r2, r12
    29c4:	24 3c       	cpi	r18, 0xC4	; 196
    29c6:	55 6a       	ori	r21, 0xA5	; 165
    29c8:	7e 8e       	std	Y+30, r7	; 0x1e
    29ca:	8c 88       	ldd	r8, Y+20	; 0x14
    29cc:	7d 98       	cbi	0x0f, 5	; 15
    29ce:	ae ab       	std	Y+54, r26	; 0x36
    29d0:	88 5b       	subi	r24, 0xB8	; 184
    29d2:	63 6c       	ori	r22, 0xC3	; 195
    29d4:	82 89       	ldd	r24, Z+18	; 0x12
    29d6:	86 88       	ldd	r8, Z+22	; 0x16
    29d8:	94 98       	cbi	0x12, 4	; 18
    29da:	8e a6       	std	Y+46, r8	; 0x2e
    29dc:	c3 d4       	rcall	.+2438   	; 0x3364 <girl_scream+0x5a2>
    29de:	d4 b9       	out	0x04, r29	; 4
    29e0:	77 4b       	sbci	r23, 0xB7	; 183
    29e2:	58 5c       	subi	r21, 0xC8	; 200
    29e4:	5f 64       	ori	r21, 0x4F	; 79
    29e6:	6a 62       	ori	r22, 0x2A	; 42
    29e8:	5e 64       	ori	r21, 0x4E	; 78
    29ea:	71 8a       	std	Z+17, r7	; 0x11
    29ec:	a7 c2       	rjmp	.+1358   	; 0x2f3c <girl_scream+0x17a>
    29ee:	bd 9d       	mul	r27, r13
    29f0:	71 57       	subi	r23, 0x71	; 113
    29f2:	56 7a       	andi	r21, 0xA6	; 166
    29f4:	7b 7d       	andi	r23, 0xDB	; 219
    29f6:	6c 58       	subi	r22, 0x8C	; 140
    29f8:	5f 7e       	andi	r21, 0xEF	; 239
    29fa:	9f b4       	in	r9, 0x2f	; 47
    29fc:	d0 d4       	rcall	.+2464   	; 0x339e <girl_scream+0x5dc>
    29fe:	cf a6       	std	Y+47, r12	; 0x2f
    2a00:	65 3e       	cpi	r22, 0xE5	; 229
    2a02:	47 49       	sbci	r20, 0x97	; 151
    2a04:	42 28       	or	r4, r2
    2a06:	1c 26       	eor	r1, r28
    2a08:	3b 57       	subi	r19, 0x7B	; 123
    2a0a:	6f 90       	pop	r6
    2a0c:	c0 ce       	rjmp	.-640    	; 0x278e <__stack+0x1e8f>
    2a0e:	d2 b6       	in	r13, 0x32	; 50
    2a10:	94 9e       	mul	r9, r20
    2a12:	92 80       	ldd	r9, Z+2	; 0x02
    2a14:	5a 44       	sbci	r21, 0x4A	; 74
    2a16:	37 3f       	cpi	r19, 0xF7	; 247
    2a18:	5d 7c       	andi	r21, 0xCD	; 205
    2a1a:	87 b1       	in	r24, 0x07	; 7
    2a1c:	cb c7       	rjmp	.+3990   	; 0x39b4 <girl_scream+0xbf2>
    2a1e:	bb 9f       	mul	r27, r27
    2a20:	96 8c       	ldd	r9, Z+30	; 0x1e
    2a22:	8f 88       	ldd	r8, Y+23	; 0x17
    2a24:	5c 3a       	cpi	r21, 0xAC	; 172
    2a26:	38 44       	sbci	r19, 0x48	; 72
    2a28:	5f 78       	andi	r21, 0x8F	; 143
    2a2a:	9a b7       	in	r25, 0x3a	; 58
    2a2c:	d0 cc       	rjmp	.-1632   	; 0x23ce <__stack+0x1acf>
    2a2e:	a8 8d       	ldd	r26, Y+24	; 0x18
    2a30:	9e 9e       	mul	r9, r30
    2a32:	87 63       	ori	r24, 0x37	; 55
    2a34:	30 29       	or	r19, r0
    2a36:	25 25       	eor	r18, r5
    2a38:	22 39       	cpi	r18, 0x92	; 146
    2a3a:	6b 9e       	mul	r6, r27
    2a3c:	a9 94       	.word	0x94a9	; ????
    2a3e:	97 a9       	ldd	r25, Z+55	; 0x37
    2a40:	a4 8d       	ldd	r26, Z+28	; 0x1c
    2a42:	82 7f       	andi	r24, 0xF2	; 242
    2a44:	92 76       	andi	r25, 0x62	; 98
    2a46:	66 73       	andi	r22, 0x36	; 54
    2a48:	9f be       	out	0x3f, r9	; 63
    2a4a:	ad a0       	ldd	r10, Y+37	; 0x25
    2a4c:	8a 9f       	mul	r24, r26
    2a4e:	9d 97       	sbiw	r26, 0x2d	; 45
    2a50:	7c 6b       	ori	r23, 0xBC	; 188
    2a52:	76 73       	andi	r23, 0x36	; 54
    2a54:	5e 46       	sbci	r21, 0x6E	; 110
    2a56:	46 5e       	subi	r20, 0xE6	; 230
    2a58:	7e 7d       	andi	r23, 0xDE	; 222
    2a5a:	8a 96       	adiw	r24, 0x2a	; 42
    2a5c:	ae c8       	rjmp	.-3748   	; 0x1bba <__stack+0x12bb>
    2a5e:	dd e0       	ldi	r29, 0x0D	; 13
    2a60:	c8 b1       	in	r28, 0x08	; 8
    2a62:	8f 6d       	ori	r24, 0xDF	; 223
    2a64:	4b 48       	sbci	r20, 0x8B	; 139
    2a66:	65 6f       	ori	r22, 0xF5	; 245
    2a68:	6e 50       	subi	r22, 0x0E	; 14
    2a6a:	2b 28       	or	r2, r11
    2a6c:	42 5f       	subi	r20, 0xF2	; 242
    2a6e:	78 93       	.word	0x9378	; ????
    2a70:	a2 98       	cbi	0x14, 2	; 20
    2a72:	6b 3e       	cpi	r22, 0xEB	; 235
    2a74:	48 6e       	ori	r20, 0xE8	; 232
    2a76:	93 99       	sbic	0x12, 3	; 18
    2a78:	6d 4d       	sbci	r22, 0xDD	; 221
    2a7a:	45 43       	sbci	r20, 0x35	; 53
    2a7c:	57 84       	ldd	r5, Z+15	; 0x0f
    2a7e:	b3 e1       	ldi	r27, 0x13	; 19
    2a80:	e2 e1       	ldi	r30, 0x12	; 18
    2a82:	b1 7e       	andi	r27, 0xE1	; 225
    2a84:	86 89       	ldd	r24, Z+22	; 0x16
    2a86:	85 83       	std	Z+5, r24	; 0x05
    2a88:	7e 5d       	subi	r23, 0xDE	; 222
    2a8a:	51 58       	subi	r21, 0x81	; 129
    2a8c:	58 6e       	ori	r21, 0xE8	; 232
    2a8e:	b1 d7       	rcall	.+3938   	; 0x39f2 <girl_scream+0xc30>
    2a90:	dd be       	out	0x3d, r13	; 61
    2a92:	8a 66       	ori	r24, 0x6A	; 106
    2a94:	54 64       	ori	r21, 0x44	; 68
    2a96:	6a 4a       	sbci	r22, 0xAA	; 170
    2a98:	36 39       	cpi	r19, 0x96	; 150
    2a9a:	40 3c       	cpi	r20, 0xC0	; 192
    2a9c:	45 6f       	ori	r20, 0xF5	; 245
    2a9e:	9f c9       	rjmp	.-3266   	; 0x1dde <__stack+0x14df>
    2aa0:	dc d3       	rcall	.+1976   	; 0x325a <girl_scream+0x498>
    2aa2:	bc c0       	rjmp	.+376    	; 0x2c1c <__stack+0x231d>
    2aa4:	9d 76       	andi	r25, 0x6D	; 109
    2aa6:	4d 31       	cpi	r20, 0x1D	; 29
    2aa8:	3a 45       	sbci	r19, 0x5A	; 90
    2aaa:	51 47       	sbci	r21, 0x71	; 113
    2aac:	5d 79       	andi	r21, 0x9D	; 157
    2aae:	93 98       	cbi	0x12, 3	; 18
    2ab0:	92 9e       	mul	r9, r18
    2ab2:	b4 a6       	std	Z+44, r11	; 0x2c
    2ab4:	84 6f       	ori	r24, 0xF4	; 244
    2ab6:	68 78       	andi	r22, 0x88	; 136
    2ab8:	6b 72       	andi	r22, 0x2B	; 43
    2aba:	89 af       	std	Y+57, r24	; 0x39
    2abc:	b3 93       	.word	0x93b3	; ????
    2abe:	75 76       	andi	r23, 0x65	; 101
    2ac0:	8b 9b       	sbis	0x11, 3	; 17
    2ac2:	b1 98       	cbi	0x16, 1	; 22
    2ac4:	8a 81       	ldd	r24, Y+2	; 0x02
    2ac6:	68 39       	cpi	r22, 0x98	; 152
    2ac8:	2f 39       	cpi	r18, 0x9F	; 159
    2aca:	58 7f       	andi	r21, 0xF8	; 248
    2acc:	86 85       	ldd	r24, Z+14	; 0x0e
    2ace:	7c 97       	sbiw	r30, 0x1c	; 28
    2ad0:	aa cd       	rjmp	.-1196   	; 0x2626 <__stack+0x1d27>
    2ad2:	cd bb       	out	0x1d, r28	; 29
    2ad4:	c0 b3       	in	r28, 0x10	; 16
    2ad6:	8f 59       	subi	r24, 0x9F	; 159
    2ad8:	53 61       	ori	r21, 0x13	; 19
    2ada:	5f 4e       	sbci	r21, 0xEF	; 239
    2adc:	39 32       	cpi	r19, 0x29	; 41
    2ade:	40 5e       	subi	r20, 0xE0	; 224
    2ae0:	7c 89       	ldd	r23, Y+20	; 0x14
    2ae2:	95 ac       	ldd	r9, Z+61	; 0x3d
    2ae4:	b3 a0       	ldd	r11, Z+35	; 0x23
    2ae6:	81 7d       	andi	r24, 0xD1	; 209
    2ae8:	7e 89       	ldd	r23, Y+22	; 0x16
    2aea:	9b 8f       	std	Y+27, r25	; 0x1b
    2aec:	83 89       	ldd	r24, Z+19	; 0x13
    2aee:	92 8d       	ldd	r25, Z+26	; 0x1a
    2af0:	88 92       	.word	0x9288	; ????
    2af2:	8e 74       	andi	r24, 0x4E	; 78
    2af4:	71 7c       	andi	r23, 0xC1	; 193
    2af6:	78 87       	std	Y+8, r23	; 0x08
    2af8:	9b 8c       	ldd	r9, Y+27	; 0x1b
    2afa:	73 6c       	ori	r23, 0xC3	; 195
    2afc:	5e 56       	subi	r21, 0x6E	; 110
    2afe:	5f 65       	ori	r21, 0x5F	; 95
    2b00:	74 69       	ori	r23, 0x94	; 148
    2b02:	69 7a       	andi	r22, 0xA9	; 169
    2b04:	85 8f       	std	Z+29, r24	; 0x1d
    2b06:	a3 ae       	std	Z+59, r10	; 0x3b
    2b08:	a7 b0       	in	r10, 0x07	; 7
    2b0a:	9c 7e       	andi	r25, 0xEC	; 236
    2b0c:	5d 43       	sbci	r21, 0x3D	; 61
    2b0e:	59 8a       	std	Y+17, r5	; 0x11
    2b10:	a3 9d       	mul	r26, r3
    2b12:	7d 7f       	andi	r23, 0xFD	; 253
    2b14:	8f 75       	andi	r24, 0x5F	; 95
    2b16:	77 91       	elpm	r23, Z+
    2b18:	a5 9e       	mul	r10, r21
    2b1a:	83 65       	ori	r24, 0x53	; 83
    2b1c:	32 22       	and	r3, r18
    2b1e:	44 6f       	ori	r20, 0xF4	; 244
    2b20:	6f 69       	ori	r22, 0x9F	; 159
    2b22:	96 9f       	mul	r25, r22
    2b24:	8b 98       	cbi	0x11, 3	; 17
    2b26:	ac b5       	in	r26, 0x2c	; 44
    2b28:	c5 c9       	rjmp	.-3190   	; 0x1eb4 <__stack+0x15b5>
    2b2a:	91 41       	sbci	r25, 0x11	; 17
    2b2c:	37 34       	cpi	r19, 0x47	; 71
    2b2e:	57 7b       	andi	r21, 0xB7	; 183
    2b30:	92 b6       	in	r9, 0x32	; 50
    2b32:	b0 ac       	ldd	r11, Z+56	; 0x38
    2b34:	8e 7a       	andi	r24, 0xAE	; 174
    2b36:	82 9c       	mul	r8, r2
    2b38:	b2 a8       	ldd	r11, Z+50	; 0x32
    2b3a:	6e 46       	sbci	r22, 0x6E	; 110
    2b3c:	38 35       	cpi	r19, 0x58	; 88
    2b3e:	44 58       	subi	r20, 0x84	; 132
    2b40:	77 84       	ldd	r7, Z+15	; 0x0f
    2b42:	ba d6       	rcall	.+3444   	; 0x38b8 <girl_scream+0xaf6>
    2b44:	be a1       	ldd	r27, Y+38	; 0x26
    2b46:	9e c2       	rjmp	.+1340   	; 0x3084 <girl_scream+0x2c2>
    2b48:	d0 b4       	in	r13, 0x20	; 32
    2b4a:	7d 66       	ori	r23, 0x6D	; 109
    2b4c:	65 51       	subi	r22, 0x15	; 21
    2b4e:	3f 39       	cpi	r19, 0x9F	; 159
    2b50:	46 76       	andi	r20, 0x66	; 102
    2b52:	90 74       	andi	r25, 0x40	; 64
    2b54:	51 67       	ori	r21, 0x71	; 113
    2b56:	a7 b3       	in	r26, 0x17	; 23
    2b58:	94 7a       	andi	r25, 0xA4	; 164
    2b5a:	7d 74       	andi	r23, 0x4D	; 77
    2b5c:	6c 61       	ori	r22, 0x1C	; 28
    2b5e:	48 51       	subi	r20, 0x18	; 24
    2b60:	71 93       	st	Z+, r23
    2b62:	8e 8f       	std	Y+30, r24	; 0x1e
    2b64:	a2 b8       	out	0x02, r10	; 2
    2b66:	bd ae       	std	Y+61, r11	; 0x3d
    2b68:	93 8b       	std	Z+19, r25	; 0x13
    2b6a:	87 78       	andi	r24, 0x87	; 135
    2b6c:	5b 32       	cpi	r21, 0x2B	; 43
    2b6e:	31 32       	cpi	r19, 0x21	; 33
    2b70:	47 5d       	subi	r20, 0xD7	; 215
    2b72:	52 79       	andi	r21, 0x92	; 146
    2b74:	bb d1       	rcall	.+886    	; 0x2eec <girl_scream+0x12a>
    2b76:	d5 d0       	rcall	.+426    	; 0x2d22 <__stack+0x2423>
    2b78:	d5 c2       	rjmp	.+1450   	; 0x3124 <girl_scream+0x362>
    2b7a:	9a 70       	andi	r25, 0x0A	; 10
    2b7c:	61 72       	andi	r22, 0x21	; 33
    2b7e:	8e 94 6b 5c 	call	0x20b8d6	; 0x20b8d6 <__TEXT_REGION_LENGTH__+0x2038d6>
    2b82:	67 73       	andi	r22, 0x37	; 55
    2b84:	73 84       	ldd	r7, Z+11	; 0x0b
    2b86:	aa a6       	std	Y+42, r10	; 0x2a
    2b88:	7a 5e       	subi	r23, 0xEA	; 234
    2b8a:	41 37       	cpi	r20, 0x71	; 113
    2b8c:	30 4b       	sbci	r19, 0xB0	; 176
    2b8e:	61 5a       	subi	r22, 0xA1	; 161
    2b90:	56 61       	ori	r21, 0x16	; 22
    2b92:	83 9e       	mul	r8, r19
    2b94:	b8 be       	out	0x38, r11	; 56
    2b96:	c5 d3       	rcall	.+1930   	; 0x3322 <girl_scream+0x560>
    2b98:	d3 a4       	ldd	r13, Z+43	; 0x2b
    2b9a:	7d 6b       	ori	r23, 0xBD	; 189
    2b9c:	7e 6e       	ori	r23, 0xEE	; 238
    2b9e:	31 28       	or	r3, r1
    2ba0:	2b 32       	cpi	r18, 0x2B	; 43
    2ba2:	40 57       	subi	r20, 0x70	; 112
    2ba4:	92 b5       	in	r25, 0x22	; 34
    2ba6:	b8 ae       	std	Y+56, r11	; 0x38
    2ba8:	8f 96       	adiw	r24, 0x2f	; 47
    2baa:	a2 94       	swap	r10
    2bac:	7f 72       	andi	r23, 0x2F	; 47
    2bae:	67 74       	andi	r22, 0x47	; 71
    2bb0:	76 8e       	std	Z+30, r7	; 0x1e
    2bb2:	a6 b6       	in	r10, 0x36	; 54
    2bb4:	cf ce       	rjmp	.-610    	; 0x2954 <__stack+0x2055>
    2bb6:	c8 b2       	in	r12, 0x18	; 24
    2bb8:	a8 a2       	std	Y+32, r10	; 0x20
    2bba:	8e 5b       	subi	r24, 0xBE	; 190
    2bbc:	34 2f       	mov	r19, r20
    2bbe:	2e 31       	cpi	r18, 0x1E	; 30
    2bc0:	47 57       	subi	r20, 0x77	; 119
    2bc2:	58 7c       	andi	r21, 0xC8	; 200
    2bc4:	8b 73       	andi	r24, 0x3B	; 59
    2bc6:	5e 65       	ori	r21, 0x5E	; 94
    2bc8:	9b ba       	out	0x1b, r9	; 27
    2bca:	ac 95 91 96 	jmp	0x692d22	; 0x692d22 <__TEXT_REGION_LENGTH__+0x68ad22>
    2bce:	91 7c       	andi	r25, 0xC1	; 193
    2bd0:	60 4d       	sbci	r22, 0xD0	; 208
    2bd2:	63 86       	std	Z+11, r6	; 0x0b
    2bd4:	7a 5f       	subi	r23, 0xFA	; 250
    2bd6:	80 bf       	out	0x30, r24	; 48
    2bd8:	c6 ad       	ldd	r28, Z+62	; 0x3e
    2bda:	91 8a       	std	Z+17, r9	; 0x11
    2bdc:	71 61       	ori	r23, 0x11	; 17
    2bde:	4a 32       	cpi	r20, 0x2A	; 42
    2be0:	41 64       	ori	r20, 0x41	; 65
    2be2:	8f 89       	ldd	r24, Y+23	; 0x17
    2be4:	91 a8       	ldd	r9, Z+49	; 0x31
    2be6:	cb d8       	rcall	.-3690   	; 0x1d7e <__stack+0x147f>
    2be8:	bd a0       	ldd	r11, Y+37	; 0x25
    2bea:	95 93       	las	Z, r25
    2bec:	83 71       	andi	r24, 0x13	; 19
    2bee:	46 46       	sbci	r20, 0x66	; 102
    2bf0:	53 59       	subi	r21, 0x93	; 147
    2bf2:	5f 48       	sbci	r21, 0x8F	; 143
    2bf4:	65 96       	adiw	r28, 0x15	; 21
    2bf6:	a4 a2       	std	Z+36, r10	; 0x24
    2bf8:	9f a2       	std	Y+39, r9	; 0x27
    2bfa:	92 7a       	andi	r25, 0xA2	; 162
    2bfc:	60 5e       	subi	r22, 0xE0	; 224
    2bfe:	69 80       	ldd	r6, Y+1	; 0x01
    2c00:	82 59       	subi	r24, 0x92	; 146
    2c02:	54 70       	andi	r21, 0x04	; 4
    2c04:	8a 95       	dec	r24
    2c06:	96 ad       	ldd	r25, Z+62	; 0x3e
    2c08:	a0 6b       	ori	r26, 0xB0	; 176
    2c0a:	57 48       	sbci	r21, 0x87	; 135
    2c0c:	4d 58       	subi	r20, 0x8D	; 141
    2c0e:	7c 86       	std	Y+12, r7	; 0x0c
    2c10:	6a 54       	subi	r22, 0x4A	; 74
    2c12:	60 81       	ld	r22, Z
    2c14:	9f b9       	out	0x0f, r25	; 15
    2c16:	c0 c4       	rjmp	.+2432   	; 0x3598 <girl_scream+0x7d6>
    2c18:	c8 bf       	out	0x38, r28	; 56
    2c1a:	9f 94 96 ba 	call	0x27752c	; 0x27752c <__TEXT_REGION_LENGTH__+0x26f52c>
    2c1e:	a6 65       	ori	r26, 0x56	; 86
    2c20:	4b 47       	sbci	r20, 0x7B	; 123
    2c22:	4b 4f       	sbci	r20, 0xFB	; 251
    2c24:	5a 8a       	std	Y+18, r5	; 0x12
    2c26:	b3 b3       	in	r27, 0x13	; 19
    2c28:	95 6d       	ori	r25, 0xD5	; 213
    2c2a:	66 6b       	ori	r22, 0xB6	; 182
    2c2c:	61 55       	subi	r22, 0x51	; 81
    2c2e:	4e 46       	sbci	r20, 0x6E	; 110
    2c30:	4f 4c       	sbci	r20, 0xCF	; 207
    2c32:	68 76       	andi	r22, 0x68	; 104
    2c34:	99 c4       	rjmp	.+2354   	; 0x3568 <girl_scream+0x7a6>
    2c36:	c9 ce       	rjmp	.-622    	; 0x29ca <__stack+0x20cb>
    2c38:	bb b0       	in	r11, 0x0b	; 11
    2c3a:	a4 9c       	mul	r10, r4
    2c3c:	86 6e       	ori	r24, 0xE6	; 230
    2c3e:	4f 3b       	cpi	r20, 0xBF	; 191
    2c40:	4b 65       	ori	r20, 0x5B	; 91
    2c42:	6e 6d       	ori	r22, 0xDE	; 222
    2c44:	81 90       	ld	r8, Z+
    2c46:	87 71       	andi	r24, 0x17	; 23
    2c48:	80 95       	com	r24
    2c4a:	82 6c       	ori	r24, 0xC2	; 194
    2c4c:	64 56       	subi	r22, 0x64	; 100
    2c4e:	44 48       	sbci	r20, 0x84	; 132
    2c50:	5a 7f       	andi	r21, 0xFA	; 250
    2c52:	98 b1       	in	r25, 0x08	; 8
    2c54:	bb ba       	out	0x1b, r11	; 27
    2c56:	b8 b8       	out	0x08, r11	; 8
    2c58:	c9 c0       	rjmp	.+402    	; 0x2dec <girl_scream+0x2a>
    2c5a:	bc b5       	in	r27, 0x2c	; 44
    2c5c:	a4 7c       	andi	r26, 0xC4	; 196
    2c5e:	3c 26       	eor	r3, r28
    2c60:	27 3d       	cpi	r18, 0xD7	; 215
    2c62:	5f 78       	andi	r21, 0x8F	; 143
    2c64:	85 81       	ldd	r24, Z+5	; 0x05
    2c66:	88 91       	.word	0x9188	; ????
    2c68:	82 6b       	ori	r24, 0xB2	; 178
    2c6a:	77 90       	elpm	r7, Z+
    2c6c:	89 55       	subi	r24, 0x59	; 89
    2c6e:	3a 49       	sbci	r19, 0x9A	; 154
    2c70:	79 9d       	mul	r23, r9
    2c72:	88 7f       	andi	r24, 0xF8	; 248
    2c74:	8e b4       	in	r8, 0x2e	; 46
    2c76:	b8 99       	sbic	0x17, 0	; 23
    2c78:	82 82       	std	Z+2, r8	; 0x02
    2c7a:	a9 b2       	in	r10, 0x19	; 25
    2c7c:	7b 4e       	sbci	r23, 0xEB	; 235
    2c7e:	58 7b       	andi	r21, 0xB8	; 184
    2c80:	87 70       	andi	r24, 0x07	; 7
    2c82:	66 75       	andi	r22, 0x56	; 86
    2c84:	a5 cd       	rjmp	.-1206   	; 0x27d0 <__stack+0x1ed1>
    2c86:	a4 83       	std	Z+4, r26	; 0x04
    2c88:	86 a1       	ldd	r24, Z+38	; 0x26
    2c8a:	aa 88       	ldd	r10, Y+18	; 0x12
    2c8c:	61 4f       	sbci	r22, 0xF1	; 241
    2c8e:	6c 7a       	andi	r22, 0xAC	; 172
    2c90:	6f 4f       	sbci	r22, 0xFF	; 255
    2c92:	70 98       	cbi	0x0e, 0	; 14
    2c94:	99 80       	ldd	r9, Y+1	; 0x01
    2c96:	49 3b       	cpi	r20, 0xB9	; 185
    2c98:	45 85       	ldd	r20, Z+13	; 0x0d
    2c9a:	92 5e       	subi	r25, 0xE2	; 226
    2c9c:	4d 6a       	ori	r20, 0xAD	; 173
    2c9e:	86 81       	ldd	r24, Z+6	; 0x06
    2ca0:	79 7c       	andi	r23, 0xC9	; 201
    2ca2:	9f c4       	rjmp	.+2366   	; 0x35e2 <girl_scream+0x820>
    2ca4:	ba 8a       	std	Y+18, r11	; 0x12
    2ca6:	78 95       	.word	0x9578	; ????
    2ca8:	b8 a6       	std	Y+40, r11	; 0x28
    2caa:	7e 6a       	ori	r23, 0xAE	; 174
    2cac:	67 6a       	ori	r22, 0xA7	; 167
    2cae:	7d 7e       	andi	r23, 0xED	; 237
    2cb0:	87 a6       	std	Z+47, r8	; 0x2f
    2cb2:	b1 ad       	ldd	r27, Z+57	; 0x39
    2cb4:	83 6a       	ori	r24, 0xA3	; 163
    2cb6:	6f 7d       	andi	r22, 0xDF	; 223
    2cb8:	9a 9a       	sbi	0x13, 2	; 19
    2cba:	7d 71       	andi	r23, 0x1D	; 29
    2cbc:	6f 63       	ori	r22, 0x3F	; 63
    2cbe:	47 56       	subi	r20, 0x67	; 103
    2cc0:	6e 7d       	andi	r22, 0xDE	; 222
    2cc2:	8a 94       	dec	r8
    2cc4:	7f 5a       	subi	r23, 0xAF	; 175
    2cc6:	72 89       	ldd	r23, Z+18	; 0x12
    2cc8:	82 84       	ldd	r8, Z+10	; 0x0a
    2cca:	94 7c       	andi	r25, 0xC4	; 196
    2ccc:	69 60       	ori	r22, 0x09	; 9
    2cce:	61 5d       	subi	r22, 0xD1	; 209
    2cd0:	79 9b       	sbis	0x0f, 1	; 15
    2cd2:	8f 8c       	ldd	r8, Y+31	; 0x1f
    2cd4:	7b 67       	ori	r23, 0x7B	; 123
    2cd6:	60 79       	andi	r22, 0x90	; 144
    2cd8:	7e 74       	andi	r23, 0x4E	; 78
    2cda:	69 82       	std	Y+1, r6	; 0x01
    2cdc:	97 90       	elpm	r9, Z+
    2cde:	9f a9       	ldd	r25, Y+55	; 0x37
    2ce0:	b5 b2       	in	r11, 0x15	; 21
    2ce2:	aa 99       	sbic	0x15, 2	; 21
    2ce4:	74 6f       	ori	r23, 0xF4	; 244
    2ce6:	87 7a       	andi	r24, 0xA7	; 167
    2ce8:	66 6c       	ori	r22, 0xC6	; 198
    2cea:	7b 6d       	ori	r23, 0xDB	; 219
    2cec:	68 7b       	andi	r22, 0xB8	; 184
    2cee:	7d 8b       	std	Y+21, r23	; 0x15
    2cf0:	90 90 96 8e 	lds	r9, 0x8E96	; 0x808e96 <__bss_end+0x8d92>
    2cf4:	89 75       	andi	r24, 0x59	; 89
    2cf6:	74 83       	std	Z+4, r23	; 0x04
    2cf8:	6b 5b       	subi	r22, 0xBB	; 187
    2cfa:	5a 6a       	ori	r21, 0xAA	; 170
    2cfc:	7a 8c       	ldd	r7, Y+26	; 0x1a
    2cfe:	99 a6       	std	Y+41, r9	; 0x29
    2d00:	b7 b0       	in	r11, 0x07	; 7
    2d02:	b4 a1       	ldd	r27, Z+36	; 0x24
    2d04:	86 77       	andi	r24, 0x76	; 118
    2d06:	61 3c       	cpi	r22, 0xC1	; 193
    2d08:	25 1c       	adc	r2, r5
    2d0a:	1e 39       	cpi	r17, 0x9E	; 158
    2d0c:	60 8d       	ldd	r22, Z+24	; 0x18
    2d0e:	a8 c1       	rjmp	.+848    	; 0x3060 <girl_scream+0x29e>
    2d10:	c6 bc       	out	0x26, r12	; 38
    2d12:	a9 95       	.word	0x95a9	; ????
    2d14:	8a 90       	ld	r8, -Y
    2d16:	8b 75       	andi	r24, 0x5B	; 91
    2d18:	63 63       	ori	r22, 0x33	; 51
    2d1a:	7b 91       	.word	0x917b	; ????
    2d1c:	9a 9e       	mul	r9, r26
    2d1e:	a5 9c       	mul	r10, r5
    2d20:	ad b9       	out	0x0d, r26	; 13
    2d22:	a5 81       	ldd	r26, Z+5	; 0x05
    2d24:	78 80       	ld	r7, Y
    2d26:	62 3b       	cpi	r22, 0xB2	; 178
    2d28:	34 3f       	cpi	r19, 0xF4	; 244
    2d2a:	5e 66       	ori	r21, 0x6E	; 110
    2d2c:	4d 5a       	subi	r20, 0xAD	; 173
    2d2e:	83 ba       	out	0x13, r8	; 19
    2d30:	c0 b3       	in	r28, 0x10	; 16
    2d32:	98 94       	clz
    2d34:	b2 9f       	mul	r27, r18
    2d36:	5d 3c       	cpi	r21, 0xCD	; 205
    2d38:	58 77       	andi	r21, 0x78	; 120
    2d3a:	70 42       	sbci	r23, 0x20	; 32
    2d3c:	31 3a       	cpi	r19, 0xA1	; 161
    2d3e:	72 97       	sbiw	r30, 0x12	; 18
    2d40:	7c 77       	andi	r23, 0x7C	; 124
    2d42:	90 bc       	out	0x20, r9	; 32
    2d44:	b4 91       	lpm	r27, Z
    2d46:	6a 6a       	ori	r22, 0xAA	; 170
    2d48:	87 8f       	std	Z+31, r24	; 0x1f
    2d4a:	78 62       	ori	r23, 0x28	; 40
    2d4c:	9b c9       	rjmp	.-3274   	; 0x2084 <__stack+0x1785>
    2d4e:	d9 bd       	out	0x29, r29	; 41
    2d50:	9e 95 af da 	call	0x65b55e	; 0x65b55e <__TEXT_REGION_LENGTH__+0x65355e>
    2d54:	bc 77       	andi	r27, 0x7C	; 124
    2d56:	5d 6a       	ori	r21, 0xAD	; 173
    2d58:	56 43       	sbci	r21, 0x36	; 54
    2d5a:	34 2d       	mov	r19, r4
    2d5c:	4c 77       	andi	r20, 0x7C	; 124
    2d5e:	6d 49       	sbci	r22, 0x9D	; 157
    2d60:	4a 7e       	andi	r20, 0xEA	; 234
    2d62:	a0 90 71 63 	lds	r10, 0x6371	; 0x806371 <__bss_end+0x626d>
    2d66:	66 7b       	andi	r22, 0xB6	; 182
    2d68:	88 7f       	andi	r24, 0xF8	; 248
    2d6a:	97 ad       	ldd	r25, Z+63	; 0x3f
    2d6c:	c8 be       	out	0x38, r12	; 56
    2d6e:	9a 8c       	ldd	r9, Y+26	; 0x1a
    2d70:	8e 97       	sbiw	r24, 0x2e	; 46
    2d72:	ab 9c       	mul	r10, r11
    2d74:	7f 77       	andi	r23, 0x7F	; 127
    2d76:	73 5c       	subi	r23, 0xC3	; 195
    2d78:	3a 56       	subi	r19, 0x6A	; 106
    2d7a:	62 6a       	ori	r22, 0xA2	; 162
    2d7c:	7a 80       	ldd	r7, Y+2	; 0x02
    2d7e:	5d 56       	subi	r21, 0x6D	; 109
    2d80:	71 79       	andi	r23, 0x91	; 145
    2d82:	76 8f       	std	Z+30, r23	; 0x1e
    2d84:	aa a0       	ldd	r10, Y+34	; 0x22
    2d86:	a3 9a       	sbi	0x14, 3	; 20
    2d88:	9b 86       	std	Y+11, r9	; 0x0b
    2d8a:	8e 90       	ld	r8, -X
    2d8c:	84 79       	andi	r24, 0x94	; 148
    2d8e:	70 6e       	ori	r23, 0xE0	; 224
    2d90:	7e 98       	cbi	0x0f, 6	; 15
    2d92:	91 77       	andi	r25, 0x71	; 113
    2d94:	61 79       	andi	r22, 0x91	; 145
    2d96:	76 70       	andi	r23, 0x06	; 6
    2d98:	7d 8c       	ldd	r7, Y+29	; 0x1d
    2d9a:	94 8b       	std	Z+20, r25	; 0x14
    2d9c:	89 72       	andi	r24, 0x29	; 41
    2d9e:	64 75       	andi	r22, 0x54	; 84
    2da0:	84 80       	ldd	r8, Z+4	; 0x04
    2da2:	72 6e       	ori	r23, 0xE2	; 226
    2da4:	71 68       	ori	r23, 0x81	; 129
    2da6:	6f 8f       	std	Y+31, r22	; 0x1f
    2da8:	9c b2       	in	r9, 0x1c	; 28
    2daa:	a7 9b       	sbis	0x14, 7	; 20
    2dac:	87 6a       	ori	r24, 0xA7	; 167
    2dae:	5a 40       	sbci	r21, 0x0A	; 10
    2db0:	5b 77       	andi	r21, 0x7B	; 123
    2db2:	78 66       	ori	r23, 0x68	; 104
    2db4:	57 5e       	subi	r21, 0xE7	; 231
    2db6:	74 86       	std	Z+12, r7	; 0x0c
    2db8:	8d 99       	sbic	0x11, 5	; 17
    2dba:	b1 c2       	rjmp	.+1378   	; 0x331e <girl_scream+0x55c>
    2dbc:	ae 85       	ldd	r26, Y+14	; 0x0e
    2dbe:	7d 92       	st	X+, r7
    2dc0:	85 73       	andi	r24, 0x35	; 53

00002dc2 <girl_scream>:
    2dc2:	80 80 80 80 80 80 80 80 80 80 80 80 80 80 80 80     ................
    2dd2:	80 80 80 80 80 80 7f 80 80 80 80 80 80 80 80 80     ................
    2de2:	80 80 80 80 80 80 80 80 80 80 80 80 80 80 80 80     ................
    2df2:	80 80 80 80 80 80 80 80 80 80 80 80 80 80 80 80     ................
    2e02:	80 80 80 80 80 80 80 80 7f 80 7f 80 7f 80 80 80     ................
    2e12:	80 80 80 80 80 80 80 80 80 80 80 80 80 7f 80 7f     ................
    2e22:	80 80 80 80 80 80 80 80 80 7f 80 7f 80 80 80 80     ................
    2e32:	80 80 80 80 80 80 80 80 80 80 7f 80 80 80 80 80     ................
    2e42:	80 7f 80 7f 80 80 80 7f 80 7f 80 7f 80 7f 7f 80     ................
    2e52:	7f 80 7f 7f 80 7f 80 7f 7f 7f 7f 7f 7f 7f 7f 7f     ................
    2e62:	7f 7f 7f 7f 7f 7f 7f 7f 7f 7f 7f 7f 7f 7f 7f 7f     ................
    2e72:	7f 80 7f 7f 7f 80 7f 80 7f 80 80 7f 80 7f 7f 7f     ................
    2e82:	7f 7f 7f 7f 7f 7f 7f 7f 7f 7f 7f 7f 7f 7f 7f 7f     ................
    2e92:	7f 80 80 80 7f 7f 7f 7f 7f 80 7f 7f 7f 80 80 80     ................
    2ea2:	7f 7f 7f 80 80 80 7f 7f 7f 80 80 80 7f 7f 7f 80     ................
    2eb2:	80 80 7f 7f 7f 7f 80 80 7f 7f 7f 7f 80 80 80 7f     ................
    2ec2:	7f 7f 80 80 80 7f 7f 7f 80 80 80 80 7f 7f 7f 80     ................
    2ed2:	80 7f 80 7f 7f 7f 80 80 7f 7f 80 7f 7f 7f 80 7f     ................
    2ee2:	7f 80 7f 7f 7f 80 80 7f 7f 80 7f 7f 7f 80 7f 80     ................
    2ef2:	80 7f 7f 7f 80 7f 80 7f 80 7f 7f 7f 80 80 7f 7f     ................
    2f02:	7f 80 7f 80 7f 80 7f 80 80 7f 7f 80 80 7f 7f 80     ................
    2f12:	80 7f 80 7f 7f 7f 80 80 7f 7f 80 7f 7f 80 7f 7f     ................
    2f22:	80 80 7f 7f 80 80 80 80 7f 7f 80 80 7f 7f 7f 80     ................
    2f32:	7f 80 7f 80 7f 80 81 7f 7f 7f 80 7f 80 80 7f 7f     ................
    2f42:	7f 80 80 7f 7f 7f 80 7f 80 80 7f 7f 80 80 7f 80     ................
    2f52:	7f 7f 7f 80 80 7f 80 80 7f 7f 80 80 80 7f 7f 7f     ................
    2f62:	7f 80 80 7f 80 7f 7f 7e 81 81 7f 7e 7f 80 7f 80     .......~...~....
    2f72:	80 7f 7e 7f 81 81 80 7f 7f 7f 80 81 80 7f 7f 7f     ..~.............
    2f82:	7f 81 81 7e 7e 7f 81 80 80 7f 7e 7e 81 82 7f 7f     ...~~.....~~....
    2f92:	7e 80 80 82 7f 7f 7b 81 82 80 7e 7e 81 7e 80 80     ~.....{...~~.~..
    2fa2:	7e 7c 83 81 7e 7d 82 80 7e 80 80 7c 7f 85 7f 7d     ~|..~}..~..|...}
    2fb2:	7e 83 7d 80 81 7d 7e 82 82 7d 7e 81 80 7f 80 7f     ~.}..}~..}~.....
    2fc2:	7e 81 81 7f 7e 80 81 7d 81 7d 7e 83 82 7e 7b 82     ~...~..}.}~..~{.
    2fd2:	82 7f 7e 7e 7f 82 82 7e 7d 80 81 7e 81 7f 7e 7f     ..~~...~}..~..~.
    2fe2:	82 7f 7f 7f 81 7e 81 7c 7f 86 7e 7e 7c 86 7e 81     .....~.|..~~|.~.
    2ff2:	79 7e 88 80 7e 7a 85 7d 7f 81 81 7d 7f 80 7e 81     y~..~z.}...}..~.
    3002:	80 81 7c 80 7b 85 82 7f 7e 7e 82 7f 83 75 84 85     ..|.{...~~...u..
    3012:	80 7a 80 85 7e 7c 77 8d 80 7f 76 84 82 7c 80 7f     .z..~|w...v..|..
    3022:	83 7d 7f 7c 83 81 81 7d 7e 7a 85 82 7f 7f 7e 7f     .}.|...}~z....~.
    3032:	80 7b 7e 89 80 7b 7b 84 82 7c 76 8a 85 7d 79 81     .{~..{{..|v..}y.
    3042:	86 7c 78 85 8a 7a 7b 7c 87 7b 85 80 7a 7d 82 83     .|x..z{|.{..z}..
    3052:	7e 84 7c 7e 79 83 88 80 7a 7f 81 80 79 7c 8d 80     ~.|~y...z...y|..
    3062:	7a 7b 81 85 74 7d 8f 80 77 7a 85 83 76 80 8b 7f     z{..t}..wz..v...
    3072:	77 7d 82 7f 83 82 7a 7e 81 84 7d 81 82 79 79 88     w}....z~..}..yy.
    3082:	89 7b 7a 81 83 76 78 92 86 75 78 82 85 70 8a 90     .{z..vx..ux..p..
    3092:	78 75 7c 89 75 81 93 7a 73 7e 86 7b 7b 8f 82 70     xu|.u..zs~.{{..p
    30a2:	7c 88 82 7e 7e 80 7e 80 85 7f 7b 7e 7b 81 8b 81     |..~~.~...{~{...
    30b2:	7d 78 81 7b 79 95 85 77 74 81 7c 7c 98 84 71 72     }x.{y..wt.||..qr
    30c2:	85 7b 83 96 7f 6c 76 88 7c 87 90 7c 6b 7b 88 81     .{...lv.|..|k{..
    30d2:	85 8a 79 6f 7d 8e 81 79 87 80 77 7e 88 7e 72 88     ..yo}..y..w~.~r.
    30e2:	8e 79 7a 80 7d 6f 90 95 79 6f 7c 7d 79 97 91 72     .yz.}o..yo|}y..r
    30f2:	6b 7c 7d 8d 95 83 68 72 7d 88 97 88 73 6a 7c 80     k|}...hr}...sj|.
    3102:	93 90 7a 6b 73 85 86 90 85 75 6e 80 86 83 8b 83     ..zks....un.....
    3112:	75 73 83 7d 87 8d 82 70 79 7c 81 93 8a 77 6d 7b     us.}...py|...wm{
    3122:	7a 94 92 7e 6a 75 78 8c 9a 85 6f 6d 79 81 9c 8d     z..~jux...omy...
    3132:	76 68 77 7c 95 96 7e 69 71 7b 8a 9b 87 6f 6a 79     vhw|..~iq{...ojy
    3142:	81 9a 91 77 67 73 7c 94 99 80 6a 6d 77 8d 9f 88     ...wgs|...jmw...
    3152:	6d 68 73 86 a0 92 72 66 6f 7f 9d 9a 79 65 6c 79     mhs...rfo...yely
    3162:	96 a0 82 67 68 75 8e a3 8c 6b 65 70 86 a2 96 72     ...ghu...kep...r
    3172:	63 6c 7f 9f 9d 7b 63 67 78 9a a4 83 65 63 72 95     cl...{cgx...ecr.
    3182:	a7 8c 67 60 6e 8e a7 93 6d 5f 6a 86 a7 9a 74 5f     ..g`n...m_j...t_
    3192:	66 7f a3 a1 7b 60 63 78 9d a6 84 63 60 72 97 a9     f...{`cx...c`r..
    31a2:	8c 67 5e 6b 8f ab 94 6c 5d 67 87 aa 9c 73 5d 63     .g^k...l]g...s]c
    31b2:	80 a7 a3 7a 5e 60 79 a1 a8 82 61 5d 72 9a ab 8b     ...z^`y...a]r...
    31c2:	65 5c 6c 93 ad 94 6a 5b 67 8a ac 9c 70 5b 63 82     e\l...j[g...p[c.
    31d2:	a9 a3 78 5b 5f 7b a4 a8 80 5d 5c 74 a0 ab 89 61     ..x[_{...]\t...a
    31e2:	5a 6e 98 af 90 66 59 68 8f af 9a 6c 58 63 87 ac     Zn...fYh...lXc..
    31f2:	a1 74 59 5e 7f a9 a8 7c 5b 5b 77 a4 ad 84 5d 59     .tY^...|[[w...]Y
    3202:	70 9e b0 8d 61 56 6a 97 b1 96 67 55 65 8f b2 9d     p...aVj...gUe...
    3212:	6d 56 60 85 ae a5 75 57 5c 7d a9 ab 7f 59 59 75     mV`...uW\}...YYu
    3222:	a1 b0 88 5e 57 6c 99 b2 93 64 55 66 92 b3 9b 6a     ...^Wl...dUf...j
    3232:	54 60 89 b2 a4 71 54 5c 81 af aa 79 56 58 79 a9     T`...qT\...yVXy.
    3242:	b0 82 59 55 71 a2 b3 8c 5e 53 6a 99 b6 96 64 52     ..YUq...^Sj...dR
    3252:	63 90 b5 9f 6b 52 5d 87 b3 a8 73 52 59 7f ae ae     c...kR]...sRY...
    3262:	7d 55 55 76 aa b4 85 58 52 6f a2 b7 8f 5d 50 68     }UUv...XRo...]Ph
    3272:	99 b8 99 63 4f 61 90 b7 a2 6b 50 5b 87 b5 ab 73     ...cOa...kP[...s
    3282:	50 56 7f b1 b0 7c 52 52 77 ad b5 84 55 50 6f a6     PV...|RRw...UPo.
    3292:	b9 8d 5a 4e 69 9d bb 97 60 4d 62 93 b9 a1 68 4e     ..ZNi...`Mb...hN
    32a2:	5c 89 b6 aa 72 4f 57 80 b1 b1 7b 52 53 76 ac b6     \...rOW...{RSv..
    32b2:	86 55 4f 6e a4 ba 90 5a 4d 67 9c bc 99 60 4c 60     .UOn...ZMg...`L`
    32c2:	93 bb a3 68 4c 5b 8a b7 ab 72 4d 57 7f b2 b2 7b     ...hL[...rMW...{
    32d2:	52 52 76 ab b8 87 55 4f 6d a4 bb 92 5a 4c 65 9c     RRv...UOm...ZLe.
    32e2:	bd 9a 61 4b 5f 93 bd a4 67 4a 5a 8a ba ac 70 4b     ..aK_...gJZ...pK
    32f2:	55 82 b6 b2 7a 4d 51 79 b1 b8 81 52 4e 71 a7 bd     U...zMQy...RNq..
    3302:	8d 56 4c 69 a0 bd 98 5c 4a 62 98 be 9f 63 4a 5c     .VLi...\Jb...cJ\
    3312:	8f bc a9 6a 4b 57 86 b9 b0 73 4c 52 7d b5 b6 7c     ...jKW...sLR}..|
    3322:	4f 4f 75 af bb 85 53 4c 6d a6 be 90 57 4a 66 9f     OOu...SLm...WJf.
    3332:	bf 99 5e 49 5f 97 c0 a2 64 49 5a 8e be aa 6c 4a     ..^I_...dIZ...lJ
    3342:	55 84 ba b1 74 4c 51 7b b5 b7 7d 4f 4e 73 ae bc     U...tLQ{..}ONs..
    3352:	88 53 4b 6c a7 bf 90 58 49 64 9f c1 9a 5d 48 5e     .SKl...XId...]H^
    3362:	97 c0 a2 64 49 59 8e be ab 6c 49 53 85 bc b1 74     ...dIY...lIS...t
    3372:	4c 4f 7c b7 b8 7c 4e 4c 75 b2 bc 85 51 4a 6d ab     LO|..|NLu...QJm.
    3382:	c0 8d 56 48 66 a4 c2 96 5b 48 5f 9b c3 9e 61 47     ..VHf...[H_...aG
    3392:	5a 92 c1 a7 68 49 54 88 bf af 6e 4a 51 82 ba b5     Z...hIT...nJQ...
    33a2:	77 4c 4e 79 b6 bb 7f 4f 4b 72 af bf 88 51 49 6b     wLNy...OKr...QIk
    33b2:	a9 c1 91 55 47 65 a3 c3 97 5b 47 5f 9a c2 a0 61     ...UGe...[G_...a
    33c2:	48 5a 91 c2 a7 68 49 56 88 bd af 70 4b 53 7f b8     HZ...hIV...pKS..
    33d2:	b7 77 4d 4f 78 b2 bb 82 4f 4c 70 ad be 8a 54 4a     .wMOx...OLp...TJ
    33e2:	6a a6 c1 92 57 48 64 a0 c1 9a 5d 47 5e 98 c3 a1     j...WHd...]G^...
    33f2:	62 47 59 92 c2 a8 68 47 55 8a c0 ae 6e 49 51 83     bGY...hGU...nIQ.
    3402:	bc b4 74 4b 4f 7c b8 b9 7b 4d 4c 76 b5 bd 81 4e     ..tKO|..{MLv...N
    3412:	4a 71 b0 bf 88 51 49 6b ab c3 8d 54 48 67 a4 c4     Jq...QIk...THg..
    3422:	94 57 48 63 9e c3 9b 5b 48 5f 96 c3 a1 60 4a 5c     .WHc...[H_...`J\
    3432:	8f c0 a9 65 4a 58 89 bf ae 6b 4a 56 83 bb b3 70     ...eJX...kJV...p
    3442:	4b 54 7e b6 b6 77 4d 52 78 b1 ba 7e 50 50 72 ac     KT~..wMRx..~PPr.
    3452:	be 85 52 4d 6d a9 c0 8b 54 4b 68 a5 c2 90 57 4a     ..RMm...TKh...WJ
    3462:	65 a1 c2 97 59 49 61 9e c4 9a 5c 48 5e 99 c4 9f     e...YIa...\H^...
    3472:	5e 47 5c 96 c3 a2 61 48 5a 92 c2 a6 64 49 58 8e     ^G\...aHZ...dIX.
    3482:	c0 aa 68 49 56 89 bf ad 6c 49 54 86 be b0 6e 4a     ..hIV...lIT...nJ
    3492:	53 83 bd b3 71 4a 52 81 ba b5 74 4b 51 7e b8 b7     S...qJR...tKQ~..
    34a2:	77 4c 50 7b b6 b9 7a 4d 50 77 b3 ba 7d 4e 4f 75     wLP{..zMPw..}NOu
    34b2:	b0 bc 80 50 4f 71 ac bd 85 51 4e 6f a9 be 89 54     ...POq...QNo...T
    34c2:	4e 6c a4 bf 8e 56 4e 69 a1 be 93 59 4c 65 9d c0     Nl...VNi...YLe..
    34d2:	97 5c 4b 62 9b c1 9a 5d 4a 5f 99 c1 9d 5f 49 5e     .\Kb...]J_..._I^
    34e2:	97 c2 a0 60 49 5c 94 c2 a2 62 49 5b 92 c2 a5 63     ...`I\...bI[...c
    34f2:	48 59 91 c2 a5 65 49 58 8f c2 a8 65 48 57 8f c2     HY...eIX...eHW..
    3502:	a8 66 48 57 8e c1 a9 67 48 57 8c c2 aa 67 49 57     .fHW...gHW...gIW
    3512:	8b c1 ab 67 4a 57 8a c0 ab 68 4b 57 88 be ad 6a     ...gJW...hKW...j
    3522:	4b 57 86 bc ad 6d 4c 57 84 bb af 6e 4d 56 82 b9     KW...mLW...nMV..
    3532:	b1 70 4d 56 81 b7 b1 73 4e 56 7e b5 b2 75 4f 56     .pMV...sNV~..uOV
    3542:	7c b1 b4 79 50 55 79 b0 b5 7b 51 52 77 b0 b7 7d     |..yPUy..{QRw..}
    3552:	52 50 76 b1 b9 7e 50 50 75 b2 b9 7d 50 4f 76 b3     RPv..~PPu..}POv.
    3562:	b9 7d 50 4f 76 b4 b9 7c 50 4f 77 b3 b8 7c 50 50     .}POv..|POw..|PP
    3572:	77 b3 b7 7c 50 51 78 b1 b6 7d 51 52 78 ae b4 7e     w..|PQx..}QRx..~
    3582:	53 54 75 aa b6 81 55 53 72 aa b9 82 54 51 71 ad     STu...USr...TQq.
    3592:	b9 81 53 51 72 af b9 7e 52 51 74 b1 b8 7c 51 52     ..SQr..~RQt..|QR
    35a2:	76 b2 b7 7a 51 53 78 b3 b5 77 50 55 7a b2 b3 76     v..zQSx..wPUz..v
    35b2:	51 57 7b b1 b2 76 52 59 7b af b0 77 53 59 7a af     QW{..vRY{..wSYz.
    35c2:	b1 77 54 57 7a b1 b1 77 53 54 7d b5 b0 74 4f 54     .wTWz..wST}..tOT
    35d2:	81 b9 ad 70 4e 56 86 bb aa 6c 4d 58 8a bc a7 69     ...pNV...lMX...i
    35e2:	4d 5a 8d bc a4 66 4d 5c 90 be a0 63 4c 5e 95 bf     MZ...fM\...cL^..
    35f2:	9b 60 4c 61 99 bf 98 5c 4d 64 9e bd 92 5a 4e 68     .`La...\Md...ZNh
    3602:	a0 bd 8e 59 50 6a a3 bb 8a 58 51 6d a5 bb 86 56     ...YPj...XQm...V
    3612:	51 70 a9 b8 83 55 52 74 ab b6 7e 54 55 77 ab b3     Qp...URt..~TUw..
    3622:	7d 53 56 79 ad af 7b 55 59 7b a9 ae 7c 55 5b 79     }SVy..{UY{..|U[y
    3632:	a7 ae 7e 59 5a 76 a6 b2 7e 58 56 75 ac b2 7d 54     ..~YZv..~XVu..}T
    3642:	53 79 b3 b1 77 51 53 80 b7 ae 71 4d 55 88 bd a7     Sy..wQS...qMU...
    3652:	6a 4b 59 8f bf a1 63 4c 5e 97 bf 9a 5e 4c 62 9d     jKY...cL^...^Lb.
    3662:	bf 93 5b 4d 67 a4 bd 8c 57 4e 6d a9 bb 84 54 50     ..[Mg...WNm...TP
    3672:	73 af b6 7c 52 53 7a b4 b1 75 51 55 81 b7 ab 6f     s..|RSz..uQU...o
    3682:	50 58 88 b9 a5 6a 4f 5d 8e b9 9e 66 51 62 91 b7     PX...jO]...fQb..
    3692:	9a 63 54 66 92 b4 98 63 55 67 93 b3 95 63 57 69     .cTf...cUg...cWi
    36a2:	91 b2 95 64 57 66 93 b5 94 63 54 65 9a b7 90 60     ...dWf...cTe...`
    36b2:	51 68 a2 b8 8a 5a 50 6f a9 b6 83 55 51 76 af b2     Qh...ZPo...UQv..
    36c2:	7b 53 54 7d b3 ae 74 52 57 83 b6 a8 6e 51 5a 8a     {ST}..tRW...nQZ.
    36d2:	b8 a2 68 4f 5f 91 b9 9b 63 50 64 97 b8 94 60 52     ..hO_...cPd...`R
    36e2:	68 9c b6 8f 5d 54 6c 9f b6 89 5b 55 6f a5 b5 82     h...]Tl...[Uo...
    36f2:	58 55 75 ab b1 7c 54 57 7c b0 ac 74 53 5b 83 b2     XUu..|TW|..tS[..
    3702:	a7 6e 53 5f 88 b2 a1 6b 54 63 8a b1 9e 69 56 65     .nS_...kTc...iVe
    3712:	8a b0 9d 68 57 64 8d b3 9a 67 55 63 94 b7 95 62     ...hWd...gUc...b
    3722:	51 66 9d ba 8d 5b 50 6e a9 b7 82 54 50 78 b3 b1     Qf...[Pn...TPx..
    3732:	77 51 54 83 b9 a9 6d 4f 59 8d bb a1 65 4e 60 97     wQT...mOY...eN`.
    3742:	bc 96 5f 4f 67 9f bb 8c 59 51 6e a8 b7 81 56 53     .._Og...YQn...VS
    3752:	76 b0 b1 78 52 56 82 b5 a9 6f 50 5d 8c b6 9f 67     v..xRV...oP]...g
    3762:	52 64 91 b4 98 63 55 6a 94 af 93 63 59 6e 93 ac     Rd...cUj...cYn..
    3772:	90 65 5c 6f 90 aa 92 66 5d 6d 90 ac 92 66 5b 6b     .e\o...f]m...f[k
    3782:	94 af 90 63 56 6c 9d b2 8a 5d 54 71 a7 b3 82 56     ...cVl...]Tq...V
    3792:	54 79 b0 af 76 52 56 85 b6 a7 6c 4f 5c 90 ba 9d     Ty..vRV...lO\...
    37a2:	64 4e 63 9a bb 91 5c 50 6b a4 b8 87 56 52 75 ad     dNc...\Pk...VRu.
    37b2:	b2 7a 53 57 7f b2 aa 71 52 5c 88 b4 a1 69 53 63     .zSW...qR\...iSc
    37c2:	8f b4 99 64 56 69 95 b1 92 62 57 6f 97 ac 8d 62     ...dVi...bWo...b
    37d2:	5c 74 92 a7 8d 66 60 6f 8f a9 90 67 5d 6c 94 ad     \t...f`o...g]l..
    37e2:	90 64 57 6c 9d b2 89 5d 54 73 a7 b2 7f 56 54 7c     .dWl...]Ts...VT|
    37f2:	b2 ac 74 50 57 89 b9 a3 68 4d 5e 96 bc 96 5e 4f     ..tPW...hM^...^O
    3802:	68 a1 b9 89 59 52 71 aa b4 7f 55 56 7b af ad 75     h...YRq...UV{..u
    3812:	55 5b 83 b1 a5 6e 54 60 8b b5 9c 67 55 65 93 b2     U[...nT`...gUe..
    3822:	94 63 57 6c 96 b0 8d 61 5b 70 99 ac 89 61 5c 73     .cWl...a[p...a\s
    3832:	9a aa 87 61 5e 74 9b aa 84 60 5e 75 9e a9 81 5f     ...a^t...`^u..._
    3842:	5e 76 a2 aa 7d 5d 5b 7a aa aa 77 57 5a 84 b3 a3     ^v..}][z..wWZ...
    3852:	6e 52 5e 91 b9 99 62 50 66 9f b9 8b 5a 51 71 ab     nR^...bPf...ZQq.
    3862:	b4 7d 54 55 7e b2 ab 71 52 5c 89 b5 9f 68 54 63     .}TU~..qR\...hTc
    3872:	91 b6 95 62 56 6a 99 b3 8c 5e 58 70 a1 b0 82 5b     ...bVj...^Xp...[
    3882:	5b 78 a5 aa 7a 59 60 7e a8 a5 74 5b 63 81 a9 a1     [x..zY`~..t[c...
    3892:	70 5b 64 86 ad 9c 6c 59 65 8d b0 97 66 56 69 98     p[d...lYe...fVi.
    38a2:	b3 8d 5f 56 6f a1 b2 83 59 57 78 ab ad 78 55 5a     .._Vo...YWx..xUZ
    38b2:	82 b3 a5 6d 54 5f 8e b6 9b 64 53 66 99 b7 8f 5d     ...mT_...dSf...]
    38c2:	54 6f a3 b3 83 58 57 79 ab ae 78 55 5c 82 af a5     To...XWy..xU\...
    38d2:	6f 55 62 89 b1 9d 68 57 67 8f b1 95 64 5a 6b 95     oUb...hWg...dZk.
    38e2:	b1 8d 61 5b 70 9b ae 85 5e 5d 76 9f a8 80 5d 61     ..a[p...^]v...]a
    38f2:	7c 9e a4 7c 5f 64 7c 9e a5 7b 5f 63 7c a4 a4 78     |..|_d|..{_c|..x
    3902:	5d 61 81 ac a0 70 58 61 8c b2 99 67 54 66 9a b5     ]a...pXa...gTf..
    3912:	8d 5d 53 70 a8 b2 7f 56 56 7f b1 a8 70 53 5f 8b     .]Sp...VV...pS_.
    3922:	b4 9d 66 54 67 95 b4 91 60 57 6e 9d b1 86 5c 5b     ..fTg...`Wn...\[
    3932:	75 a3 ac 7d 5b 5f 7c a6 a7 75 5a 64 82 a8 9e 70     u..}[_|..uZd...p
    3942:	5c 69 88 a4 97 6f 5f 70 89 9b 94 73 66 72 82 94     \i...o_p...sfr..
    3952:	98 7b 69 6c 7a 99 9d 7d 65 63 7c a2 a0 78 5e 60     .{ilz..}ec|..x^`
    3962:	84 ac 9e 6f 58 63 90 b2 96 65 55 6a 9c b3 89 5d     ...oXc...eUj...]
    3972:	56 73 a7 af 7c 59 5a 7d af a7 71 56 5f 88 b3 9d     Vs..|YZ}..qV_...
    3982:	69 56 66 92 b3 91 62 59 6d 9b b0 87 5e 5c 74 a2     iVf...bYm...^\t.
    3992:	ab 7d 5c 60 7d a4 a2 76 5d 68 83 9e 9a 76 63 6d     .}\`}..v]h...vcm
    39a2:	83 95 96 7c 68 6f 7e 8f 98 84 6c 6c 75 8f 9e 87     ...|ho~...llu...
    39b2:	6c 65 72 94 a4 88 66 5e 73 9f a9 80 5e 5b 7b aa     ler...f^s...^[{.
    39c2:	a6 76 58 5d 88 b0 9f 6c 54 64 93 b3 94 63 56 6b     .vX]...lTd...cVk
    39d2:	9a b2 89 5e 59 72 a2 af 7f 5b 5c 7a a9 a8 75 59     ...^Yr...[\z..uY
    39e2:	61 84 ac 9f 6e 5a 67 8a ab 97 69 5d 6e 8e a7 8f     a...nZg...i]n...
    39f2:	68 62 74 8e 9e 8c 6d 67 77 8a 93 8d 76 6c 76 7f     hbt...mgw...vlv.
    3a02:	8e 94 7f 6e 6d 76 93 9f 82 67 62 78 a0 a2 7c 5f     ...nmv...gbx..|_
    3a12:	5f 80 a9 a1 72 58 62 8b af 99 69 57 68 93 b1 92     _...rXb...iWh...
    3a22:	62 58 6d 9a b0 89 5e 5a 73 a2 ae 7f 5a 5c 7b aa     bXm...^Zs...Z\{.
    3a32:	a8 75 58 5f 84 ae a0 6c 57 65 8e b0 96 65 58 6c     .uX_...lWe...eXl
    3a42:	96 ae 8b 60 5d 74 9a a8 82 61 63 7a 99 a0 80 64     ...`]t...acz...d
    3a52:	68 7d 93 98 84 6b 6b 7a 8a 98 8a 71 6b 73 86 9d     h}...kkz...qks..
    3a62:	91 70 65 6b 8c a5 91 6c 5e 6c 94 ab 8c 63 5a 72     .pek...l^l...cZr
    3a72:	9e ac 83 5c 5b 79 a6 a9 7a 59 5e 81 aa a3 72 58     ...\[y..zY^...rX
    3a82:	63 87 ab 9d 6d 59 67 8b ae 97 66 5b 6b 93 af 8e     c...mYg...f[k...
    3a92:	62 5b 70 9a ad 86 5e 5d 77 a0 a8 7d 5d 62 7e a1     b[p...^]w..}]b~.
    3aa2:	a2 78 5e 68 81 9e 9c 77 62 6c 82 99 98 7a 66 6e     .x^h...wbl...zfn
    3ab2:	7f 92 99 7f 69 6d 7a 90 9c 84 69 67 76 95 a2 84     ....imz...igv...
    3ac2:	65 62 77 9d a5 7e 5f 60 7d a6 a4 76 59 61 85 ae     ebw..~_`}..vYa..
    3ad2:	9f 6c 57 65 8e b1 97 64 57 6b 97 b2 8d 5e 59 71     .lWe...dWk...^Yq
    3ae2:	a0 af 82 5a 5c 79 a7 ab 76 58 60 82 ad a2 6d 57     ...Z\y..vX`...mW
    3af2:	65 8c af 97 66 59 6d 95 ac 8d 62 5d 76 98 a4 85     e...fYm...b]v...
    3b02:	63 63 7c 96 99 82 6a 6a 80 8c 8d 88 76 72 79 7d     cc|...jj....vry}
    3b12:	8a 93 82 71 6d 74 92 9f 84 68 62 76 9d a4 7e 5f     ...qmt...hbv..~_
    3b22:	60 7e a7 a4 74 59 61 87 af 9e 6a 56 66 91 b3 95     `~..tYa...jVf...
    3b32:	62 56 6d 9a b3 89 5b 59 74 a1 ae 80 5a 5e 7b a5     bVm...[Yt...Z^{.
    3b42:	a9 78 59 62 81 aa a2 6f 59 65 88 ad 9a 68 5a 6b     .xYb...oYe...hZk
    3b52:	91 ac 8f 64 5e 73 94 a5 8a 64 63 78 92 9e 87 69     ...d^s...dcx...i
    3b62:	68 7a 8d 98 8a 6f 6b 77 86 95 90 75 69 71 82 99     hz...okw...uiq..
    3b72:	95 76 66 6c 82 9f 99 74 62 68 85 a8 99 6d 5d 69     .vfl...tbh...m]i
    3b82:	8e ac 93 66 5a 6d 96 ae 8c 60 5a 72 9f ad 83 5b     ...fZm...`Zr...[
    3b92:	5d 7b a4 a8 7a 5a 62 7f a3 a4 75 5b 66 81 a6 a0     ]{..zZb...u[f...
    3ba2:	70 5c 67 86 ab 9a 6a 5c 6a 8d ab 93 65 5d 70 92     p\g...j\j...e]p.
    3bb2:	a9 8d 63 60 75 94 a6 87 63 64 78 94 a0 85 67 68     ..c`u...cdx...gh
    3bc2:	7a 8f 9b 88 6c 6a 78 89 9a 8d 6f 69 72 87 9e 91     z...ljx...oir...
    3bd2:	71 65 6e 89 a3 93 6d 61 6d 8d a8 91 68 5e 6d 94     qen...mam...h^m.
    3be2:	ad 8b 61 5b 72 9f ad 82 5c 5c 7a a7 aa 77 58 60     ..a[r...\\z..wX`
    3bf2:	82 ac a3 6e 57 65 8a b0 9a 67 58 6b 92 af 91 62     ...nWe...gXk...b
    3c02:	5b 70 97 ad 88 5f 5e 75 9e ab 7f 5d 61 7a a3 a5     [p..._^u...]az..
    3c12:	77 5d 65 82 a5 9e 72 5d 6b 87 a2 98 70 61 70 88     w]e...r]k...pap.
    3c22:	9c 94 74 66 71 83 97 95 79 68 6f 7f 94 99 7d 67     ..tfq...yho...}g
    3c32:	6b 7c 97 9c 7e 66 68 7c 99 a0 7e 63 65 7c 9f a1     k|..~fh|..~ce|..
    3c42:	7a 60 64 80 a3 a1 76 5d 65 84 a6 9d 72 5c 67 86     z`d...v]e...r\g.
    3c52:	a8 9c 6d 5b 69 8a ac 98 68 5b 6b 90 af 91 62 5c     ..m[i...h[k...b\
    3c62:	6f 97 ae 89 5f 5e 75 9b aa 82 5e 61 7a 9e a5 7d     o..._^u...^az..}
    3c72:	5e 65 7e 9d a1 7a 61 69 7f 9a 9f 7a 61 6a 7e 9b     ^e~..zai...zaj~.
    3c82:	9d 79 63 6b 80 99 9b 7b 65 6c 7d 97 9c 7d 66 6a     .yck...{el}..}fj
    3c92:	7c 97 9e 7f 65 68 7a 99 a1 7f 63 65 7a 9d a3 7c     |...ehz...cez..|
    3ca2:	60 64 7d a3 a3 77 5d 64 82 a7 a1 71 5a 66 88 ac     `d}..w]d...qZf..
    3cb2:	9b 6a 59 69 8f af 95 64 5a 6d 95 af 8d 5f 5b 72     .jYi...dZm..._[r
    3cc2:	9b ae 84 5c 5f 78 a0 aa 7d 5b 63 7d a3 a5 76 5b     ...\_x..}[c}..v[
    3cd2:	66 81 a5 a1 71 5c 69 84 a7 9b 6d 5e 6b 88 a7 97     f...q\i...m^k...
    3ce2:	6b 5f 6e 8a a5 94 6a 60 71 8c a3 90 6a 63 73 8b     k_n...j`q...jcs.
    3cf2:	a0 90 6d 65 72 89 9f 91 6f 64 71 88 9e 92 71 64     ..mer...odq...qd
    3d02:	70 87 9d 94 72 64 6e 84 9e 98 73 62 6b 84 a2 9a     p...rdn...sbk...
    3d12:	70 5f 6a 87 a7 98 6e 5d 6a 8b aa 96 68 5c 6c 90     p_j...n]j...h\l.
    3d22:	ac 92 64 5c 6f 95 ae 8c 60 5c 73 9c ad 84 5c 5e     ..d\o...`\s...\^
    3d32:	79 a0 a9 7c 5b 63 7d a2 a5 77 5c 67 81 a2 a0 74     y..|[c}..w\g...t
    3d42:	5d 6a 83 a1 9c 73 60 6d 83 9f 9a 73 62 6f 84 9b     ]j...s`m...sbo..
    3d52:	98 76 64 70 82 96 97 7a 67 6f 7e 92 99 7f 68 6c     .vdp...zgo~...hl
    3d62:	7b 93 9c 82 69 69 79 92 9f 85 67 66 76 94 a4 86     {...iiy...gfv...
    3d72:	64 63 76 99 a5 83 61 62 78 9b a8 7f 5e 62 7a a2     dcv...abx...^bz.
    3d82:	a7 7a 5b 63 7f a5 a5 74 5a 64 84 ab a0 6d 59 68     .z[c...tZd...mYh
    3d92:	8a ad 9a 67 59 6c 90 ae 93 62 5b 70 95 ad 8b 60     ...gYl...b[p...`
    3da2:	5e 76 97 aa 86 5e 62 79 99 a6 81 60 66 7a 98 a2     ^v...^by...`fz..
    3db2:	80 62 67 7c 96 a0 80 64 69 7b 94 9f 81 65 69 7a     .bg|...di{...eiz
    3dc2:	94 9e 82 66 69 7a 92 9e 84 67 68 79 92 9e 85 69     ...fiz...ghy...i
    3dd2:	67 78 8f 9e 89 69 67 75 8e a0 8b 6a 64 73 8f a3     gx...igu...jds..
    3de2:	8d 68 62 72 91 a6 8b 66 60 73 94 a7 89 63 60 76     .hbr...f`s...c`v
    3df2:	97 a6 87 61 61 77 99 a6 84 61 62 78 9b a6 81 5f     ...aaw...abx..._
    3e02:	63 7a 9d a5 7d 5e 63 7e a1 a3 78 5c 66 81 a3 a0     cz..}^c~..x\f...
    3e12:	74 5c 69 84 a3 9d 71 5e 6b 86 a2 9a 70 5f 6e 87     t\i...q^k...p_n.
    3e22:	a1 97 6f 61 6f 85 9e 97 71 63 6f 84 9d 97 73 63     ..oao...qco...sc
    3e32:	6f 84 9c 98 74 64 6e 82 9b 99 76 64 6d 81 9b 99     o...tdn...vdm...
    3e42:	78 64 6b 81 9a 9b 79 64 6a 7e 9a 9e 7b 62 68 7e     xdk...ydj~..{bh~
    3e52:	9d 9f 79 61 67 7f 9f 9f 79 5f 67 81 9f 9d 78 60     ..yag...y_g...x`
    3e62:	68 81 9e 9d 78 60 69 80 9e 9e 78 60 68 7f a0 a0     h...x`i...x`h...
    3e72:	76 5e 66 81 a5 9f 71 5c 67 86 a9 9b 6c 5c 6a 8a     v^f...q\g...l\j.
    3e82:	aa 97 68 5c 6d 8f aa 91 65 5f 71 91 a7 8d 65 61     ..h\m...e_q...ea
    3e92:	73 91 a6 8a 66 64 75 91 a2 8a 67 65 75 8f a1 8a     s...fdu...geu...
    3ea2:	69 66 75 8e a0 8b 6a 66 75 8d 9e 8d 6c 65 73 8b     ifu...jfu...les.
    3eb2:	9e 8f 6e 64 72 8a 9e 90 70 65 70 88 9f 94 71 63     ..ndr...pep...qc
    3ec2:	6d 87 a2 95 70 61 6c 89 a4 96 6e 5f 6c 8b a6 94     m...pal...n_l...
    3ed2:	6c 5f 6d 8c a6 93 6a 5f 6e 8e a7 92 69 5f 6e 8f     l_m...j_n...i_n.
    3ee2:	a9 90 66 5e 6f 93 ab 8c 63 5e 72 97 aa 88 60 60     ..f^o...c^r...``
    3ef2:	76 99 a8 84 5f 62 78 9a a6 7f 60 65 7a 9b a3 7e     v..._bx...`ez..~
    3f02:	61 67 7b 99 a0 7e 63 68 7c 97 9f 80 64 69 7c 94     ag{..~ch|...di|.
    3f12:	9c 81 67 6a 7a 90 9c 86 6a 69 78 8d 9c 8a 6d 67     ..gjz...jix...mg
    3f22:	74 8b 9e 8e 6e 65 71 8a 9f 92 6e 63 6f 8a a3 93     t...neq...nco...
    3f32:	6d 61 6d 8b a6 94 6a 5f 6d 8e a8 92 68 5e 6e 91     mam...j_m...h^n.
    3f42:	aa 8f 66 5e 70 93 a9 8d 64 5f 71 95 aa 8a 62 5f     ..f^p...d_q...b_
    3f52:	73 97 aa 87 60 60 76 9a a9 83 5f 62 78 9b a7 80     s...``v..._bx...
    3f62:	5e 63 7a 9d a5 7d 5e 65 7c 9e a2 7b 60 67 7e 9c     ^cz..}^e|..{`g~.
    3f72:	a1 7a 60 69 7e 9b 9e 7b 62 6a 7d 99 9e 7c 64 6a     .z`i~..{bj}..|dj
    3f82:	7d 97 9e 7f 65 6a 7b 94 9d 81 67 69 79 92 9e 85     }...ej{...giy...
    3f92:	68 68 77 90 9e 89 6a 65 75 8f a0 8a 6b 64 74 8e     hhw...jeu...kdt.
    3fa2:	a1 8e 6b 63 72 8d a3 8f 6b 62 70 8d a5 91 69 60     ..kcr...kbp...i`
    3fb2:	6f 8f a7 90 67 5e 70 91 a8 8e 66 5f 71 93 a8 8c     o...g^p...f_q...
    3fc2:	64 5f 72 95 a8 8b 63 5f 74 96 a8 88 62 60 75 97     d_r...c_t...b`u.
    3fd2:	a8 86 61 62 76 98 a7 83 61 63 78 99 a6 82 60 64     ..abv...acx...`d
    3fe2:	79 9b a5 7f 60 65 7b 9a a3 7e 61 66 7c 9a a2 7e     y...`e{..~af|..~
    3ff2:	61 67 7c 9a 9f 7e 63 68 7d 97 9d 80 65 69 7c 94     ag|..~ch}...ei|.
    4002:	9b 83 68 69 7b 8e 9a 88 6d 69 76 89 9c 8f 6f 66     ..hi{...miv...of
    4012:	71 88 a0 92 6f 63 6e 89 a3 94 6c 60 6d 8c a8 93     q...ocn...l`m...
    4022:	69 5e 6e 90 a9 90 66 5d 6f 94 ab 8c 63 5e 72 97     i^n...f]o...c^r.
    4032:	aa 88 60 5f 75 9b a9 83 5f 60 78 9e a8 7e 5d 61     ..`_u..._`x..~]a
    4042:	7c a2 a5 79 5c 64 80 a3 a1 76 5c 66 82 a5 9e 72     |..y\d...v\f...r
    4052:	5d 69 85 a4 9c 70 5e 6b 87 a4 99 6f 5f 6d 88 a4     ]i...p^k...o_m..
    4062:	96 6e 61 6e 88 a2 95 6e 62 6e 89 a1 94 6f 62 6f     .nan...nbn...obo
    4072:	89 a0 93 70 63 70 87 9e 95 71 63 6f 85 9d 96 73     ...pcp...qco...s
    4082:	63 6e 84 9d 97 74 63 6d 83 9c 98 76 63 6c 82 9c     cn...tcm...vcl..
    4092:	9b 78 62 6a 82 9e 9b 77 62 69 81 9e 9c 76 61 69     .xbj...wbi...vai
    40a2:	81 9f 9c 77 60 68 82 a0 9c 76 60 69 84 9f 9b 76     ...w`h...v`i...v
    40b2:	60 6a 82 9f 9c 75 61 69 83 9f 9b 76 61 6a 83 9e     `j...uai...vaj..
    40c2:	9b 76 61 6a 82 9f 9c 76 61 6a 82 9f 9d 75 60 69     .vaj...vaj...u`i
    40d2:	82 a2 9c 74 60 69 83 a3 9c 71 60 6a 85 a3 99 71     ...t`i...q`j...q
    40e2:	5f 6c 87 a2 98 6f 60 6d 87 a1 97 70 61 6e 86 9f     _l...o`m...pan..
    40f2:	97 72 62 6e 85 9e 97 73 63 6d 84 9c 97 75 63 6d     .rbn...scm...ucm
    4102:	82 9c 98 77 64 6c 81 9a 9a 7a 64 6a 7f 99 9c 7c     ...wdl...zdj...|
    4112:	64 69 7d 9a 9e 7c 63 66 7d 9c a0 7c 61 65 7d 9d     di}..|cf}..|ae}.
    4122:	a2 7b 5f 64 7e a2 a1 78 5d 65 81 a4 a0 74 5c 66     .{_d~..x]e...t\f
    4132:	84 a6 9d 71 5c 68 86 a6 9b 6f 5d 69 88 a6 98 6e     ...q\h...o]i...n
    4142:	5d 6b 8a a6 96 6c 5e 6d 8c a4 93 6c 5f 6f 8b a3     ]k...l^m...l_o..
    4152:	93 6c 61 6f 8b a3 93 6d 61 6e 8b a4 92 6c 61 6f     .lao...man...lao
    4162:	8c a3 92 6c 61 70 8b a2 92 6c 62 71 8a a0 92 6e     ...lap...lbq...n
    4172:	63 70 88 9e 94 71 63 6f 86 9e 95 73 64 6e 84 9c     cp...qco...sdn..
    4182:	97 75 64 6d 83 9c 98 77 64 6c 81 9a 99 7a 65 6a     .udm...wdl...zej
    4192:	7f 99 9c 7c 64 68 7d 9a 9f 7d 63 66 7c 9d a1 7c     ...|dh}..}cf|..|
    41a2:	61 65 7e 9f a1 7a 5f 65 7f a1 a0 77 5e 66 81 a3     ae~..z_e...w^f..
    41b2:	9f 75 5e 67 83 a4 9d 73 5d 68 85 a6 9c 70 5d 69     .u^g...s]h...p]i
    41c2:	88 a7 99 6e 5d 6b 8a a8 96 6b 5d 6d 8e a8 92 69     ...n]k...k]m...i
    41d2:	5e 6f 8f a7 90 68 5f 71 91 a5 8e 67 61 73 91 a2     ^o...h_q...gas..
    41e2:	8c 68 63 74 8f a0 8c 6a 64 75 8d 9e 8d 6e 66 73     .hct...jdu...nfs
    41f2:	89 9c 91 71 65 71 86 9d 94 72 64 6e 85 9e 95 73     ...qeq...rdn...s
    4202:	63 6d 85 9e 98 72 62 6c 85 a0 98 73 62 6c 85 a0     cm...rbl...sbl..
    4212:	99 73 61 6b 85 a1 99 73 60 6a 86 a3 99 71 5f 6b     .sak...s`j...q_k
    4222:	87 a3 99 6f 5f 6b 88 a5 97 6e 5e 6c 8a a7 95 6b     ...o_k...n^l...k
    4232:	5e 6c 8e a9 92 68 5e 6f 92 a9 8f 65 5e 71 95 a8     ^l...h^o...e^q..
    4242:	8a 64 60 74 96 a7 87 63 61 76 97 a5 85 62 63 77     .d`t...cav...bcw
    4252:	98 a4 83 63 63 79 99 a3 81 63 65 7a 99 a1 81 63     ...ccy...cez...c
    4262:	66 7a 98 a1 80 63 66 7b 98 9f 80 64 67 7b 98 9f     fz...cf{...dg{..
    4272:	80 64 68 7b 96 9e 81 66 68 7a 94 9d 84 67 67 79     .dh{...fhz...ggy
    4282:	93 9e 85 69 67 78 90 9e 88 6a 66 76 8f 9e 8a 6b     ...igx...jfv...k
    4292:	65 74 8d 9f 8d 6c 64 72 8d a1 8e 6b 63 71 8d a2     et...ldr...kcq..
    42a2:	8f 6b 62 70 8d a4 90 6a 60 70 90 a7 8e 67 5f 71     .kbp...j`p...g_q
    42b2:	94 a8 8b 64 5f 73 97 a8 87 62 60 76 98 a7 84 61     ...d_s...b`v...a
    42c2:	62 78 99 a5 82 61 63 79 9b a3 80 61 64 7b 9b a1     bx...acy...ad{..
    42d2:	7f 62 66 7c 9a a1 7d 62 66 7d 9b 9f 7c 62 68 7d     .bf|..}bf}..|bh}
    42e2:	9c 9e 7b 63 68 7e 9b 9e 7b 63 68 7e 9b 9e 7b 63     ..{ch~..{ch~..{c
    42f2:	69 7e 9a 9e 7b 63 69 7e 9a 9d 7c 64 69 7e 98 9c     i~..{ci~..|di~..
    4302:	7e 65 69 7d 97 9c 7f 66 69 7c 94 9c 82 68 68 7a     ~ei}...fi|...hhz
    4312:	92 9d 85 68 67 77 92 9f 87 68 65 76 92 a1 88 68     ...hgw...hev...h
    4322:	63 75 93 a2 88 66 63 75 94 a5 87 65 62 75 97 a6     cu...fcu...ebu..
    4332:	85 63 62 76 9a a6 82 61 62 79 9c a5 80 60 63 7b     .cbv...aby...`c{
    4342:	9d a3 7d 60 64 7d 9f a2 7b 5f 65 7f a2 a0 77 5f     ..}`d}..{_e...w_
    4352:	66 82 a1 9d 75 60 69 83 a0 9b 75 60 6a 84 9f 9a     f...u`i...u`j...
    4362:	75 61 6b 84 9e 99 76 62 6c 83 9c 9a 76 63 6c 81     uak...vbl...vcl.
    4372:	9c 9a 77 64 6c 81 9b 9a 78 64 6b 80 9b 9a 79 64     ..wdl...xdk...yd
    4382:	6b 80 9a 9b 7a 65 6a 7f 99 9b 7c 65 6a 7e 97 9b     k...zej...|ej~..
    4392:	7e 66 6a 7c 95 9d 81 67 68 7b 95 9d 82 68 67 79     ~fj|...gh{...hgy
    43a2:	94 9e 84 68 66 78 93 a0 86 67 65 76 94 a2 86 66     ...hfx...gev...f
    43b2:	63 76 96 a3 85 65 63 77 97 a3 84 64 63 78 97 a2     cv...ecw...dcx..
    43c2:	84 64 64 79 98 a0 83 65 65 7b 95 9e 84 68 67 79     .ddy...ee{...hgy
    43d2:	90 9e 88 6a 67 75 8e a1 8a 6a 65 72 90 a4 8b 68     ...jgu...jer...h
    43e2:	62 72 93 a6 89 65 62 74 96 a6 86 64 62 77 97 a4     br...ebt...dbw..
    43f2:	83 63 65 79 97 a1 82 65 67 79 94 9f 84 67 67 78     .cey...egy...ggx
    4402:	92 9e 86 6a 67 77 90 9e 88 6b 67 75 8d 9e 8b 6c     ...jgw...kgu...l
    4412:	66 73 8d 9e 8d 6e 65 72 8b 9f 8f 6e 65 71 8a 9e     fs...ner...neq..
    4422:	91 70 65 70 88 9f 92 72 64 6e 86 9f 95 72 64 6c     .pep...rdn...rdl
    4432:	86 a2 96 71 62 6b 87 a4 96 6f 60 6b 8a a6 94 6d     ...qbk...o`k...m
    4442:	60 6d 8c a6 92 6c 61 6e 8d a6 91 6b 61 6e 8e a5     `m...lan...kan..
    4452:	90 6b 61 6f 8e a5 8f 6a 61 70 8f a5 8d 6a 62 71     .kao...jap...jbq
    4462:	8f a3 8d 6a 63 72 8f a1 8d 6b 65 73 8c 9f 8e 6e     ...jcr...kes...n
    4472:	66 72 89 9e 90 70 66 70 87 9e 93 71 65 6e 87 a0     fr...pfp...qen..
    4482:	93 71 64 6e 87 9f 93 72 65 6e 86 9d 95 74 65 6e     .qdn...ren...ten
    4492:	84 9c 97 76 65 6c 82 9c 98 78 65 6b 81 9b 99 79     ...vel...xek...y
    44a2:	65 6b 80 9a 9a 7b 65 6a 7e 99 9b 7d 66 69 7c 9a     ek...{ej~..}fi|.
    44b2:	9d 7d 65 67 7b 9b 9f 7e 63 66 7b 9d a0 7c 63 65     .}eg{..~cf{..|ce
    44c2:	7d 9d a0 7b 62 66 7d 9e 9f 7a 62 67 7e 9e 9e 7b     }..{bf}..zbg~..{
    44d2:	62 67 7e 9e 9e 7a 62 66 7f 9f 9d 79 62 68 81 9e     bg~..zbf...ybh..
    44e2:	9b 79 63 69 81 9b 9a 7b 65 6b 7e 97 9b 7e 67 6a     .yci...{ek~..~gj
    44f2:	7b 95 9e 80 67 69 79 94 9e 83 68 68 77 93 9f 84     {...giy...hhw...
    4502:	68 68 77 92 9f 86 6a 67 75 90 a0 88 6b 66 74 8f     hhw...jgu...kft.
    4512:	a0 8a 6b 66 73 8e 9f 8c 6c 65 73 8c 9f 8e 6e 65     ..kfs...les...ne
    4522:	72 8a 9f 90 6f 65 70 89 9f 91 71 64 6f 88 9f 93     r...oep...qdo...
    4532:	71 64 6d 87 a1 94 72 63 6c 87 a2 96 71 61 6a 89     qdm...rcl...qaj.
    4542:	a5 95 6e 60 6b 8b a7 93 6c 5f 6d 8e a6 91 6b 60     ..n`k...l_m...k`
    4552:	6f 8e a5 90 6b 62 70 8e a4 8f 6b 62 70 8e a3 8f     o...kbp...kbp...
    4562:	6c 63 71 8d a2 8f 6c 64 71 8c a2 8f 6d 64 70 8a     lcq...ldq...mdp.
    4572:	a2 90 6d 65 70 8a 9f 91 6f 64 70 88 9e 91 71 65     ..mep...odp...qe
    4582:	71 86 9a 92 75 67 70 82 98 97 78 67 6e 7f 98 98     q...ugp...xgn...
    4592:	7b 68 6c 7d 97 99 7d 69 6b 7c 94 9b 81 69 6a 79     {hl}..}ik|...ijy
    45a2:	93 9c 84 6a 68 78 93 9e 85 6a 67 77 91 9e 87 6a     ...jhx...jgw...j
    45b2:	66 75 91 a0 88 6a 66 74 90 a0 89 6a 65 73 90 a3     fu...jft...jes..
    45c2:	89 69 64 73 93 a3 88 68 64 74 93 a4 86 66 64 74     .ids...hdt...fdt
    45d2:	96 a5 83 66 64 75 98 a2 82 66 64 78 99 a2 81 64     ...fdu...fdx...d
    45e2:	65 7a 9a a0 7f 63 67 7b 99 9f 7e 65 68 7c 98 9d     ez...cg{..~eh|..
    45f2:	7e 66 69 7c 95 9b 80 68 6a 7a 94 9c 81 69 6b 79     ~fi|...hjz...iky
    4602:	92 9d 83 6a 69 76 92 9e 84 6a 68 77 92 9f 85 69     ...jiv...jhw...i
    4612:	67 76 93 a0 85 68 67 76 93 a0 85 68 66 77 94 9f     gv...hgv...hfw..
    4622:	85 69 67 77 92 9f 86 6a 67 76 91 9f 88 6a 66 75     .igw...jgv...jfu
    4632:	91 9f 88 6a 65 75 91 a0 87 6a 66 76 90 9f 89 6a     ...jeu...jfv...j
    4642:	66 74 90 a0 89 6b 66 73 90 a1 89 6a 65 73 91 a2     ft...kfs...jes..
    4652:	88 69 65 74 92 a2 88 68 64 74 94 a3 86 67 64 76     .iet...hdt...gdv
    4662:	96 a2 84 67 64 77 97 a1 82 66 66 79 96 a0 82 66     ...gdw...ffy...f
    4672:	67 78 96 a0 82 67 66 78 98 a0 80 66 66 7a 99 9e     gx...gfx...ffz..
    4682:	7f 65 67 7c 98 9b 7f 67 6a 7d 93 99 81 6b 6c 7b     .eg|...gj}...kl{
    4692:	8e 97 86 6e 6c 77 89 98 8b 71 6b 73 86 9b 8e 71     ...nlw...qks...q
    46a2:	6a 70 86 9c 91 72 67 6f 86 9e 91 72 66 6f 87 9d     jp...rgo...rfo..
    46b2:	93 72 66 6f 86 9d 93 73 65 6e 86 9e 93 73 66 6e     .rfo...sen...sfn
    46c2:	86 9b 94 75 66 6e 83 9c 95 76 66 6d 82 9b 96 77     ...ufn...vfm...w
    46d2:	66 6c 81 9c 98 77 65 6b 81 9d 99 77 64 6a 82 9f     fl...wek...wdj..
    46e2:	99 76 63 6a 83 9f 99 74 63 6b 84 a0 97 73 63 6b     .vcj...tck...sck
    46f2:	85 a0 96 73 64 6d 85 9e 96 73 65 6e 84 9d 96 74     ...sdm...sen...t
    4702:	66 6e 83 9c 96 76 66 6d 82 9c 97 76 66 6d 81 9a     fn...vfm...vfm..
    4712:	97 78 66 6d 80 9a 97 79 68 6c 7f 97 98 7b 68 6d     .xfm...yhl...{hm
    4722:	7e 96 97 7d 6a 6d 7d 91 98 82 6c 6d 79 8e 99 86     ~..}jm}...lmy...
    4732:	6e 6b 76 8b 9a 8a 6f 6a 74 8a 9a 8d 71 69 72 88     nkv...ojt...qir.
    4742:	9a 8f 73 69 71 85 9a 93 75 67 6f 84 9b 94 76 67     ..siq...ugo...vg
    4752:	6d 83 9c 95 76 67 6d 82 9a 97 78 66 6d 80 9a 99     m...vgm...xfm...
    4762:	79 66 6b 7f 9c 99 79 66 6a 7f 9c 9a 79 66 6a 7f     yfk...yfj...yfj.
    4772:	9b 9a 7a 66 6b 7e 99 9b 7a 66 6b 7d 9a 9a 7b 67     ..zfk~..zfk}..{g
    4782:	6a 7c 99 9b 7b 67 6a 7d 97 9b 7d 67 6b 7c 97 9b     j|..{gj}..}gk|..
    4792:	7e 68 6b 7b 94 9a 80 6b 6c 7a 8f 99 85 6d 6c 78     ~hk{...klz...mlx
    47a2:	8b 98 89 70 6c 76 87 97 8d 73 6b 73 84 96 90 77     ...plv...sks...w
    47b2:	6b 71 81 95 93 7b 6c 70 7e 91 95 7f 6d 6e 7a 8e     kq...{lp~...mnz.
    47c2:	97 85 6e 6c 77 8c 99 89 6f 6a 75 89 9a 8c 72 69     ..nlw...oju...ri
    47d2:	72 87 99 8f 74 69 71 84 99 92 76 69 6f 82 99 95     r...tiq...vio...
    47e2:	78 68 6d 7f 98 98 7a 68 6b 7e 9b 9a 7a 66 69 7f     xhm...zhk~..zfi.
    47f2:	9c 9a 79 66 69 7f 9a 9b 7b 65 6a 7e 9a 9b 7b 66     ..yfi...{ej~..{f
    4802:	6a 7d 9a 9b 7b 66 6a 7d 99 9b 7c 67 6a 7c 98 9b     j}..{fj}..|gj|..
    4812:	7d 67 69 7c 97 9a 7e 68 6b 7c 93 99 81 6b 6c 7a     }gi|..~hk|...klz
    4822:	8f 98 85 6e 6c 77 8b 99 89 70 6b 75 88 97 8d 73     ...nlw...pku...s
    4832:	6b 73 84 96 90 77 6b 71 81 94 93 7b 6c 6f 7d 91     ks...wkq...{lo}.
    4842:	97 80 6c 6d 79 90 99 84 6d 6b 77 8d 9b 87 6e 6a     ..lmy...mkw...nj
    4852:	75 8b 9a 8b 70 6a 73 88 9a 8f 73 68 71 86 9a 91     u...pjs...shq...
    4862:	75 67 6f 84 9a 94 76 68 6e 81 97 97 7a 68 6c 7d     ugo...vhn...zhl}
    4872:	98 99 7c 68 69 7c 98 9c 7d 67 68 7b 98 9c 7f 67     ..|hi|..}gh{...g
    4882:	69 7b 95 9c 81 69 69 78 93 9c 84 6b 69 76 8f 9d     i{...iix...kiv..
    4892:	88 6d 68 74 8d 9d 8b 6f 68 72 89 9d 8e 71 68 70     .mht...ohr...qhp
    48a2:	87 9b 91 74 67 70 84 99 93 77 68 6f 80 95 96 7c     ...tgp...who...|
    48b2:	6a 6e 7c 93 98 81 6c 6c 79 8f 99 85 6f 6b 76 8a     jn|...lly...okv.
    48c2:	98 8c 71 6a 73 86 98 8f 76 6a 71 82 95 93 7b 6b     ..qjs...vjq...{k
    48d2:	6e 7d 93 97 80 6c 6c 7a 90 98 85 6f 6a 76 8c 9a     n}...llz...ojv..
    48e2:	8a 70 69 73 8a 9a 8d 74 69 70 85 99 92 77 69 6e     .pis...tip...win
    48f2:	81 99 97 7a 68 6a 7e 9a 9a 7c 66 67 7d 9b 9a 7c     ...zhj~..|fg}..|
    4902:	67 68 7c 97 9b 7f 68 69 79 94 9d 83 6a 68 76 91     gh|...hiy...jhv.
    4912:	9e 86 6c 67 73 8f 9f 89 6d 67 71 8d 9f 8c 6e 66     ..lgs...mgq...nf
    4922:	71 8a 9e 8d 71 68 71 86 99 91 76 6a 70 81 96 94     q...qhq...vjp...
    4932:	7b 6a 6e 7d 93 96 7f 6d 6d 7a 8e 97 85 71 6d 76     {jn}...mmz...qmv
    4942:	88 96 8c 75 6d 73 82 95 92 7a 6c 6f 7e 94 96 7e     ...ums...zlo~..~
    4952:	6c 6c 7b 93 99 81 6c 6b 78 8f 9a 86 6e 6a 75 8c     ll{...lkx...nju.
    4962:	9a 8a 71 69 73 88 9b 8e 73 69 71 84 98 93 77 69     ..qis...siq...wi
    4972:	6f 80 98 96 7a 69 6c 7c 96 99 7e 6a 6b 7a 94 9c     o...zil|..~jkz..
    4982:	80 6a 69 77 95 9e 82 6a 67 76 94 9f 83 69 67 76     .jiw...jgv...igv
    4992:	93 9f 85 6a 67 74 92 a0 87 6b 67 74 90 9f 88 6c     ...jgt...kgt...l
    49a2:	68 73 8c 9e 8c 6e 68 72 8a 9c 8d 71 69 72 86 9a     hs...nhr...qir..
    49b2:	91 74 6a 71 81 97 94 79 6b 6f 7d 94 96 7e 6c 6e     .tjq...yko}..~ln
    49c2:	7a 90 97 83 6e 6d 78 8b 97 88 72 6d 74 86 97 8e     z...nmx...rmt...
    49d2:	76 6c 71 81 95 92 7b 6c 6f 7d 92 95 80 6e 6e 79     vlq...{lo}...nny
    49e2:	8e 97 86 70 6c 76 8a 98 8b 73 6b 73 86 97 8f 77     ...plv...sks...w
    49f2:	6b 71 81 94 94 7c 6b 6e 7c 93 98 7f 6c 6c 79 90     kq...|kn|...lly.
    4a02:	9b 84 6d 69 75 90 9d 87 6c 68 74 8d 9e 8a 6e 68     ..miu...lht...nh
    4a12:	73 8b 9d 8e 6f 68 71 88 9d 8f 73 68 6f 85 9b 92     s...ohq...sho...
    4a22:	75 68 6f 83 98 93 7a 6a 6f 80 92 94 80 6d 6f 7a     uho...zjo....moz
    4a32:	8c 97 86 71 6d 74 88 9a 8c 72 6b 72 85 9a 91 75     ...qmt...rkr...u
    4a42:	69 6f 83 99 93 78 69 6f 80 95 96 7c 6b 6f 7c 90     io...xio...|ko|.
    4a52:	97 82 6d 6d 78 8d 99 87 70 6b 76 88 98 8d 73 6c     ..mmx...pkv...sl
    4a62:	72 83 97 91 78 6b 70 7f 94 95 7d 6c 6e 7b 92 99     r...xkp...}ln{..
    4a72:	82 6c 6b 78 8f 9b 86 6e 6a 75 8d 9c 89 6f 69 74     .lkx...nju...oit
    4a82:	89 9a 8e 73 69 71 85 99 93 75 69 6f 82 98 94 7a     ...siq...uio...z
    4a92:	69 6d 7e 96 98 7d 6a 6c 7b 93 9a 82 6b 6b 77 91     im~..}jl{...kkw.
    4aa2:	9b 85 6d 69 76 8c 9c 8a 6f 69 73 89 9c 8e 71 69     ..miv...ois...qi
    4ab2:	71 85 9b 91 75 69 6f 82 99 94 79 6a 6e 7e 96 98     q...uio...yjn~..
    4ac2:	7c 6a 6d 7b 93 9a 80 6b 6c 79 90 99 84 6d 6c 78     |jm{...kly...mlx
    4ad2:	8a 99 89 71 6c 74 86 96 8e 76 6c 73 80 93 93 7b     ...qlt...vls...{
    4ae2:	6d 71 7c 90 95 81 70 6e 79 8a 96 88 71 6d 75 86     mq|...pny...qmu.
    4af2:	97 8d 76 6c 73 82 94 92 7b 6c 70 7e 92 95 7f 6e     ..vls...{lp~...n
    4b02:	6f 7a 8d 96 85 71 6e 78 87 95 8c 75 6d 73 83 95     oz...qnx...ums..
    4b12:	91 7a 6c 71 7e 93 95 7e 6d 6e 7a 8f 99 83 6e 6c     .zlq~..~mnz...nl
    4b22:	76 8d 9c 88 6e 6a 73 8b 9e 8b 6f 68 72 89 9e 8e     v...njs...ohr...
    4b32:	70 68 71 87 9d 92 72 68 6f 84 9d 93 74 68 6e 83     phq...rho...thn.
    4b42:	9b 96 76 68 6f 80 97 97 7a 69 6e 7d 95 98 7e 6b     ..vho...zin}..~k
    4b52:	6d 7a 91 98 82 6d 6d 78 8b 98 88 70 6d 76 86 96     mz...mmx...pmv..
    4b62:	8d 75 6d 74 81 94 91 7a 6e 71 7d 8f 95 81 6f 6f     .umt...znq}...oo
    4b72:	79 8c 96 86 71 6e 77 86 95 8c 75 6e 74 82 92 90     y...qnw...unt...
    4b82:	7c 6e 72 7c 8e 95 82 6f 6f 79 8a 96 88 72 6d 75     |nr|...ooy...rmu
    4b92:	86 97 8d 75 6c 73 82 94 92 7a 6c 71 7d 92 96 7f     ...uls...zlq}...
    4ba2:	6d 6e 7a 8f 98 84 6d 6c 76 8c 9b 87 6f 6b 75 89     mnz...mlv...oku.
    4bb2:	9a 8c 71 6b 73 85 99 90 75 6a 71 82 96 93 79 6b     ..qks...ujq...yk
    4bc2:	70 7e 92 96 7f 6c 6f 7a 8f 98 83 6e 6d 78 8a 98     p~...loz...nmx..
    4bd2:	89 71 6d 75 86 97 8f 74 6b 73 81 97 92 78 6c 71     .qmu...tks...xlq
    4be2:	7e 91 96 7d 6d 70 7a 8e 95 84 70 6f 79 87 95 8a     ~..}mpz...poy...
    4bf2:	74 6f 76 82 91 8f 7a 6f 74 7d 8d 92 81 70 72 79     tov...zot}...pry
    4c02:	88 94 87 74 70 77 83 90 8e 7a 6f 74 7d 8f 93 80     ...tpw...zot}...
    4c12:	70 70 7a 8a 95 86 71 6f 77 86 94 8c 76 6e 75 81     ppz...qow...vnu.
    4c22:	92 90 7b 6f 72 7d 8e 95 81 6f 70 78 8b 95 87 73     ..{or}...opx...s
    4c32:	6e 77 85 94 8d 76 6e 74 80 92 91 7b 6e 71 7c 8f     nw...vnt...{nq|.
    4c42:	95 80 6f 6f 79 8b 97 87 70 6e 76 87 99 8b 72 6c     ..ooy...pnv...rl
    4c52:	75 85 96 8f 76 6c 74 7f 93 93 7a 6d 71 7d 90 94     u...vlt...zmq}..
    4c62:	80 6e 70 7b 8a 95 86 71 70 79 85 92 8c 77 70 77     .np{...qpy...wpw
    4c72:	7f 8e 90 7e 70 74 7c 88 92 85 73 72 79 84 8f 8b     ...~pt|...sry...
    4c82:	7a 71 77 7d 8c 91 80 72 73 7a 87 91 89 74 71 77     zqw}...rsz...tqw
    4c92:	82 92 8c 7a 6f 75 7e 8d 92 7f 70 72 7a 8a 93 86     ...zou~...prz...
    4ca2:	72 70 76 85 95 8c 77 6e 73 80 95 92 79 6d 70 7e     rpv...wns...ymp~
    4cb2:	93 96 7d 6c 6f 7b 92 98 80 6c 6e 79 8e 98 84 6e     ..}lo{...lny...n
    4cc2:	6e 77 89 98 89 71 6e 75 84 95 8f 76 6c 73 80 95     nw...qnu...vls..
    4cd2:	92 7a 6c 72 7e 90 95 7f 6e 71 7b 8b 93 85 72 70     .zlr~...nq{...rp
    4ce2:	79 84 91 8c 77 70 76 7f 8d 8f 7f 72 74 7b 87 91     y...wpv....rt{..
    4cf2:	87 75 72 78 81 90 8e 7a 71 75 7c 8d 92 81 71 72     .urx...zqu|...qr
    4d02:	79 87 94 88 73 70 77 83 92 8e 78 6f 75 7f 8e 90     y...spw...xou...
    4d12:	80 70 73 7b 89 93 85 73 70 78 85 92 8b 77 6f 75     .ps{...spx...wou
    4d22:	80 8f 91 7d 6f 73 7b 8c 93 83 72 70 77 87 97 8a     ...}os{...rpw...
    4d32:	73 6d 74 85 97 8f 75 6c 72 82 96 91 79 6c 71 7e     smt...ulr...ylq~
    4d42:	92 95 7d 6d 70 7c 8d 96 83 6e 70 78 89 96 89 72     ..}mp|...npx...r
    4d52:	6e 76 84 96 8d 75 6d 74 81 93 91 7a 6e 73 7d 8e     nv...umt...zns}.
    4d62:	92 81 6f 72 7a 88 95 86 73 70 78 84 92 8d 77 6f     ..orz...spx...wo
    4d72:	76 80 8e 8f 7f 70 74 7c 87 92 85 74 72 79 82 8e     v....pt|...try..
    4d82:	8c 7b 71 76 7e 8b 8e 83 73 74 7b 84 90 89 77 72     .{qv~...st{...wr
    4d92:	77 7f 8c 8f 7e 72 74 7b 88 91 86 74 71 78 83 92     w...~rt{...tqx..
    4da2:	8c 78 6f 75 80 8e 90 7e 6f 73 7b 8c 94 83 71 70     .xou...~os{...qp
    4db2:	78 88 96 88 72 6e 75 85 96 8e 74 6c 73 83 96 91     x...rnu...tls...
    4dc2:	78 6b 72 80 94 93 7b 6c 71 7d 8f 96 80 6e 70 7a     xkr...{lq}...npz
    4dd2:	8b 96 86 70 6f 78 86 94 8b 75 6e 76 82 92 8f 79     ...pox...unv...y
    4de2:	6f 74 7e 8c 92 80 70 73 7a 88 93 87 73 71 78 84     ot~...psz...sqx.
    4df2:	91 8c 78 70 76 7f 8e 90 7e 70 74 7c 89 90 85 74     ..xpv...~pt|...t
    4e02:	72 79 83 90 8b 79 71 76 7f 8c 8f 80 71 74 7b 88     ry...yqv....qt{.
    4e12:	90 87 75 71 78 82 90 8c 7a 71 75 7f 8b 90 81 71     ..uqx...zqu....q
    4e22:	73 7a 87 91 88 75 71 76 81 92 8e 79 6f 72 7e 92     sz...uqv...yor~.
    4e32:	92 7d 6e 70 7c 8e 96 82 6e 6f 79 8b 95 86 72 6e     .}np|...noy...rn
    4e42:	77 85 95 8c 75 6e 75 81 92 91 7a 6e 73 7d 8f 94     w...unu...zns}..
    4e52:	80 6e 71 7a 8b 96 85 70 6f 77 87 95 8a 74 6e 77     .nqz...pow...tnw
    4e62:	82 92 8f 79 6f 74 7f 8d 91 80 70 73 7c 87 8f 87     ...yot....ps|...
    4e72:	75 72 7a 81 8c 8b 7d 73 77 7d 86 8f 86 76 74 78     urz...}sw}...vtx
    4e82:	82 8e 8c 7c 71 75 7d 8b 90 82 71 73 7a 87 91 87     ...|qu}...qsz...
    4e92:	76 70 78 82 8e 8e 7b 71 74 7d 8c 92 82 71 71 79     vpx...{qt}...qqy
    4ea2:	89 94 87 73 6f 76 84 95 8d 75 6d 73 82 95 90 79     ...sov...ums...y
    4eb2:	6d 72 7e 91 95 7d 6d 70 7b 8e 96 83 6e 6f 78 8a     mr~..}mp{...nox.
    4ec2:	98 87 71 6e 77 87 96 8c 74 6e 75 82 94 8f 79 6e     ..qnw...tnu...yn
    4ed2:	74 7e 8e 93 7f 6f 72 7b 8a 93 86 71 71 79 85 92     t~...or{...qqy..
    4ee2:	8a 77 70 77 80 8d 8f 7c 72 75 7d 88 8f 87 74 73     .wpw...|ru}...ts
    4ef2:	79 82 8e 8b 7c 71 77 7d 8a 90 81 74 74 7b 85 8e     y...|qw}...tt{..
    4f02:	89 78 72 78 80 8c 8d 7f 73 75 7c 87 8f 86 77 73     .xrx....su|...ws
    4f12:	79 82 8c 8d 7d 72 75 7c 8a 91 83 73 72 78 86 93     y...}ru|...srx..
    4f22:	8a 76 6f 75 82 94 8f 78 6e 72 7f 93 93 7c 6d 70     .vou...xnr...|mp
    4f32:	7c 91 95 80 6e 6f 7a 8c 97 84 6f 6f 78 89 96 89     |...noz...oox...
    4f42:	72 6e 76 84 95 8e 76 6d 75 81 91 90 7c 6e 74 7e     rnv...vmu...|nt~
    4f52:	8b 93 82 71 73 7b 86 90 89 77 71 78 81 8c 8d 7d     ...qs{...wqx...}
    4f62:	72 76 7d 86 8d 86 77 74 79 80 8d 8c 7d 72 76 7c     rv}...wty...}rv|
    4f72:	88 90 83 74 73 7a 84 8f 8b 78 71 77 7f 8d 8f 7f     ...tsz...xqw....
    4f82:	71 74 7c 89 91 85 74 72 79 84 90 8a 79 71 76 7f     qt|...try...yqv.
    4f92:	8c 91 7f 71 73 79 8a 93 86 73 6f 76 86 97 8a 73     ...qsy...sov...s
    4fa2:	6d 74 85 96 8e 75 6d 73 81 93 91 7a 6d 73 7e 90     mt...ums...zms~.
    4fb2:	93 7f 6f 71 7b 8b 96 84 71 70 78 87 95 8a 73 6f     ..oq{...qpx...so
    4fc2:	76 83 93 8e 78 6e 75 7f 8f 91 7d 6f 73 7d 8a 93     v...xnu...}os}..
    4fd2:	84 71 72 7a 85 91 8a 76 70 78 80 8d 8f 7c 71 76     .qrz...vpx...|qv
    4fe2:	7d 89 90 84 74 74 7a 83 8e 8a 7a 72 77 7e 8a 8f     }...ttz...zrw~..
    4ff2:	81 73 74 7a 86 90 89 76 71 78 81 8f 8d 7c 70 75     .stz...vqx...|pu
    5002:	7e 8b 8f 82 73 73 7b 85 90 89 77 72 77 80 8e 8e     ~...ss{...wrw...
    5012:	7d 71 74 7c 8c 92 83 71 71 79 89 93 87 75 6f 77     }qt|...qqy...uow
    5022:	83 92 8d 78 6f 75 7f 8f 92 7d 6f 72 7b 8d 95 83     ...xou...}or{...
    5032:	6f 6f 79 8a 98 87 70 6e 77 88 96 8b 73 6d 76 83     ooy...pnw...smv.
    5042:	94 8f 76 6d 75 81 8f 91 7d 6e 74 7d 8b 92 83 71     ..vmu...}nt}...q
    5052:	72 7b 86 91 88 76 71 78 82 8c 8d 7d 71 77 7d 88     r{...vqx...}qw}.
    5062:	8d 84 76 74 7b 81 8d 8b 7b 73 76 7e 89 8f 83 74     ..vt{...{sv~...t
    5072:	74 7a 85 8e 89 79 71 78 80 8d 8c 7f 73 75 7c 86     tz...yqx....su|.
    5082:	90 86 75 73 76 82 92 8d 79 70 73 7e 92 92 7c 6e     ..usv...yps~..|n
    5092:	71 7c 8f 95 80 6e 70 7a 8c 97 85 6f 6e 78 88 96     q|...npz...onx..
    50a2:	89 71 6e 76 85 96 8e 75 6d 75 81 93 91 7a 6d 73     .qnv...umu...zms
    50b2:	7e 8f 94 7f 6e 72 7c 8c 94 84 71 71 7a 85 92 8a     ~...nr|...qqz...
    50c2:	75 70 78 81 8f 8e 7b 70 76 7e 89 8f 83 74 74 7b     upx...{pv~...tt{
    50d2:	83 8e 8a 79 73 78 7f 89 8f 81 73 75 7a 86 90 87     ...ysx....suz...
    50e2:	76 72 78 81 8e 8e 7b 70 75 7e 8c 91 81 71 73 7a     vrx...{pu~...qsz
    50f2:	87 91 87 75 71 78 82 8f 8d 79 71 75 7e 8d 91 80     ...uqx...yqu~...
    5102:	71 73 7a 8a 92 85 73 70 78 84 93 8c 76 6f 74 80     qsz...spx...vot.
    5112:	93 91 7a 6e 72 7d 91 95 7e 6d 70 7b 8f 96 82 6e     ..znr}..~mp{...n
    5122:	6f 7a 8a 96 87 70 6f 78 85 94 8d 75 6e 76 81 92     oz...pox...unv..
    5132:	90 7a 6e 74 7e 8e 94 7f 6f 71 7b 8b 93 85 71 71     .znt~...oq{...qq
    5142:	7a 85 92 8b 75 70 77 81 8f 8f 7b 6f 75 7d 8b 92     z...upw...{ou}..
    5152:	82 72 73 7b 85 90 89 76 72 78 81 8d 8f 7d 70 76     .rs{...vrx...}pv
    5162:	7c 8a 91 83 73 72 7a 84 90 8a 77 71 77 80 8d 8f     |...srz...wqw...
    5172:	7e 71 75 7c 8a 91 84 73 72 7a 85 91 8a 76 71 77     ~qu|...srz...vqw
    5182:	81 8e 8f 7d 6f 74 7c 8c 92 82 71 71 7a 87 93 88     ...}ot|...qqz...
    5192:	73 70 76 84 93 8d 77 6e 74 7f 91 93 7b 6d 71 7d     spv...wnt...{mq}
    51a2:	90 95 7f 6e 70 7b 8c 97 84 6f 6f 78 89 97 8a 70     ...np{...oox...p
    51b2:	6e 76 85 97 8d 74 6c 74 83 94 91 78 6c 73 7f 91     nv...tlt...xls..
    51c2:	94 7d 6c 72 7c 8d 94 83 6f 71 7b 87 93 88 74 70     .}lr|...oq{...tp
    51d2:	78 83 8f 8d 7a 70 76 7e 8b 8f 81 73 74 7b 84 90     x...zpv~...st{..
    51e2:	8a 77 72 77 80 8e 8f 7d 70 75 7c 8b 92 82 72 71     .wrw...}pu|...rq
    51f2:	7a 86 92 89 74 70 77 82 90 8f 7a 6f 75 7d 8d 92     z...tpw...zou}..
    5202:	80 6f 71 7b 8a 94 85 72 70                          .oq{...rp

0000520b <Cat_scream>:
    520b:	80 80 80 80 80 7f 80 7f 80 80 80 7f 80 7f 80 80     ................
    521b:	7f 80 80 80 80 80 7f 80 7f 80 7f 80 7f 80 7f 80     ................
    522b:	7f 7f 80 7f 80 7f 80 80 80 7f 80 7f 80 7f 80 80     ................
    523b:	7f 80 7f 80 7f 80 80 7f 80 7f 80 7f 80 7f 80 7f     ................
    524b:	80 80 7f 80 7f 80 80 80 7f 80 7f 80 7f 80 7f 80     ................
    525b:	80 7f 80 7f 80 80 7f 80 7f 80 7f 80 80 7f 80 7f     ................
    526b:	80 7f 80 7f 80 80 7f 80 7f 80 7f 80 7f 80 80 7f     ................
    527b:	80 7f 80 80 7f 80 7f 80 7f 80 7f 80 7f 80 80 7f     ................
    528b:	80 7f 80 7f 80 7f 80 80 7f 80 80 80 7f 80 7f 80     ................
    529b:	80 80 7f 80 7f 80 7f 80 7f 80 80 80 7f 80 80 7f     ................
    52ab:	80 7f 80 7f 80 7f 80 80 80 80 80 80 7f 80 7f 80     ................
    52bb:	7f 7f 80 7f 80 7f 80 7f 80 80 7f 80 7f 7f 80 7f     ................
    52cb:	80 80 7f 80 7f 80 7f 80 80 7f 80 7f 80 7f 80 7f     ................
    52db:	80 7f 80 7f 80 7f 80 7f 80 7f 7f 80 7f 80 80 7f     ................
    52eb:	80 7f 80 7f 80 80 80 80 80 80 80 80 80 7f 80 7f     ................
    52fb:	80 7f 80 7f 80 7f 80 80 7f 80 7f 80 7f 80 7f 80     ................
    530b:	7f 80 7f 80 7f 80 7f 80 80 7f 80 7f 80 7f 80 7f     ................
    531b:	80 80 7f 80 7f 80 7f 80 80 7f 80 7f 80 80 80 7f     ................
    532b:	80 80 7f 80 7f 80 7f 80 80 7f 80 80 7f 80 7f 80     ................
    533b:	7f 80 7f 80 7f 80 7f 80 7f 80 7f 80 7f 80 7f 80     ................
    534b:	7f 80 80 7f 80 80 7f 80 7f 80 80 7f 80 7f 80 80     ................
    535b:	7f 80 80 7f 80 80 7f 80 7f 80 7f 80 7f 80 7f 80     ................
    536b:	7f 80 7f 80 7f 80 80 7f 80 80 7f 80 7f 7f 80 7f     ................
    537b:	80 7f 80 80 7f 80 7f 80 7f 80 7f 80 7f 80 80 7f     ................
    538b:	80 80 7f 80 7f 80 80 7f 80 7f 80 80 7f 80 7f 80     ................
    539b:	80 7f 80 80 7f 80 80 7f 80 7f 80 7f 80 80 7f 80     ................
    53ab:	7f 80 80 7f 80 80 7f 80 7f 80 80 7f 80 7f 80 80     ................
    53bb:	7f 80 7f 80 7f 80 7f 80 7f 80 7f 80 7f 80 7f 80     ................
    53cb:	80 7f 80 7f 80 7f 80 7f 80 7f 80 7f 80 7f 80 7f     ................
    53db:	80 7f 80 7f 80 7f 80 7f 80 80 80 7f 80 7f 80 7f     ................
    53eb:	80 80 7f 80 80 7f 80 7f 80 80 7f 80 7f 80 80 7f     ................
    53fb:	80 7f 80 7f 80 7f 80 7f 80 7f 80 7f 80 7f 80 7f     ................
    540b:	80 80 7f 80 7f 80 7f 80 7f 80 7f 80 7f 80 7f 80     ................
    541b:	7f 80 7f 80 7f 80 7f 80 7f 80 7f 80 80 7f 80 7f     ................
    542b:	80 80 7f 80 7f 80 7f 80 80 7f 80 80 80 80 7f 80     ................
    543b:	7f 80 7f 7f 80 7f 80 7f 80 80 80 80 80 7f 80 7f     ................
    544b:	80 7f 80 7f 7f 80 7f 80 7f 80 80 7f 80 7f 80 80     ................
    545b:	7f 80 7f 80 7f 80 80 7f 80 7f 80 80 7f 80 7f 80     ................
    546b:	80 7f 80 7f 80 7f 80 7f 80 80 7f 80 80 7f 80 7f     ................
    547b:	80 80 80 7f 7f 80 7f 80 7f 80 7f 80 7f 80 7f 80     ................
    548b:	7f 80 7f 80 7f 80 80 7f 80 80 80 7f 80 7f 80 7f     ................
    549b:	80 7f 80 80 7f 80 80 7f 80 7f 80 7f 80 7f 80 7f     ................
    54ab:	80 7f 80 7f 80 80 7f 80 7f 7f 80 7f 80 80 7f 80     ................
    54bb:	7f 7f 80 7f 80 7f 80 80 80 80 7f 80 80 80 80 80     ................
    54cb:	80 7f 80 7f 80 7f 7f 80 80 7f 80 7f 7f 80 7f 80     ................
    54db:	7f 80 7f 80 7f 7f 80 7f 80 7f 80 80 80 7f 80 80     ................
    54eb:	7f 80 7f 80 80 7f 80 80 80 7f 80 7f 80 80 7f 80     ................
    54fb:	80 7f 80 7f 80 80 80 7f 80 7f 80 80 80 7f 80 7f     ................
    550b:	80 7f 80 80 80 7f 80 7f 80 7f 80 7f 80 7f 80 7f     ................
    551b:	80 7f 80 80 80 7f 80 7f 80 80 80 7f 80 7f 80 80     ................
    552b:	7f 80 7f 80 7f 80 7f 80 7f 80 80 7f 80 7f 80 7f     ................
    553b:	80 7f 80 7f 80 7f 80 7f 80 80 7f 80 7f 80 80 7f     ................
    554b:	80 7f 80 80 7f 80 80 7f 80 80 7f 80 7f 80 7f 80     ................
    555b:	80 80 80 80 80 7f 80 7f 80 7f 80 7f 80 7f 80 7f     ................
    556b:	80 7f 80 7f 80 7f 80 7f 80 7f 7f 80 80 80 80 80     ................
    557b:	7f 80 80 80 7f 80 7f 80 7f 7f 80 7f 80 7f 80 7f     ................
    558b:	80 80 7f 80 7f 80 80 7f 80 7f 80 80 7f 80 7f 80     ................
    559b:	80 80 80 80 80 7f 80 7f 80 80 7f 80 7f 80 7f 80     ................
    55ab:	80 7f 80 7f 80 7f 80 7f 80 80 7f 80 7f 80 7f 80     ................
    55bb:	7f 80 80 7f 80 7f 80 80 80 7f 80 7f 80 7f 80 7f     ................
    55cb:	80 80 80 80 80 80 7f 80 7f 80 7f 80 80 7f 80 7f     ................
    55db:	80 7f 80 7f 80 7f 80 7f 80 80 7f 80 7f 80 80 7f     ................
    55eb:	80 80 7f 80 80 7f 80 80 7f 80 7f 80 7f 80 80 7f     ................
    55fb:	80 80 7f 80 7f 80 80 7f 80 7f 80 7f 80 80 7f 80     ................
    560b:	80 7f 80 7f 80 7f 80 80 7f 80 7f 80 7f 80 80 7f     ................
    561b:	80 7f 80 7f 80 7f 80 7f 80 7f 80 80 7f 80 7f 80     ................
    562b:	7f 80 7f 80 7f 80 7f 7f 80 7f 80 7f 80 7f 80 7f     ................
    563b:	80 80 7f 80 7f 80 7f 80 7f 80 80 7f 80 80 7f 80     ................
    564b:	7f 80 7f 80 7f 80 7f 80 7f 80 7f 80 7f 80 80 7f     ................
    565b:	80 80 7f 80 7f 80 7f 80 80 80 80 7f 80 80 80 80     ................
    566b:	80 7f 80 7f 80 80 80 7f 80 7f 80 7f 80 7f 80 7f     ................
    567b:	80 7f 80 7f 80 7f 80 80 7f 80 7f 80 80 7f 80 7f     ................
    568b:	80 7f 80 80 7f 80 7f 80 7f 80 7f 80 7f 80 80 80     ................
    569b:	80 7f 80 7f 80 80 7f 80 7f 80 7f 80 7f 80 7f 80     ................
    56ab:	7f 80 7f 80 80 7f 80 7f 80 80 80 80 7f 80 80 80     ................
    56bb:	80 80 7f 80 7f 80 80 80 80 7f 80 7f 80 7f 80 80     ................
    56cb:	80 80 7f 80 7f 80 80 7f 80 80 80 80 80 80 7f 80     ................
    56db:	80 7f 80 7f 80 7f 80 7f 80 7f 80 80 80 80 80 7f     ................
    56eb:	80 7f 80 7f 80 7f 80 80 7f 80 7f 80 7f 80 7f 80     ................
    56fb:	80 7f 80 7f 80 7f 80 80 7f 80 7f 80 80 7f 80 7f     ................
    570b:	80 7f 80 7f 80 7f 80 7f 80 7f 80 7f 80 80 7f 80     ................
    571b:	7f 80 80 7f 80 7f 80 7f 80 80 7f 80 7f 80 7f 80     ................
    572b:	7f 80 7f 7f 80 7f 7f 80 7f 80 7f 80 80 7f 80 7f     ................
    573b:	80 80 7f 80 7f 80 7f 80 7f 80 7f 80 7f 80 80 7f     ................
    574b:	80 7f 80 7f 80 80 7f 80 7f 80 7f 80 7f 80 80 7f     ................
    575b:	80 7f 80 7f 80 80 7f 80 80 7f 80 80 7f 80 7f 80     ................
    576b:	80 7f 80 80 7f 80 80 7f 80 7f 80 80 80 80 80 80     ................
    577b:	80 80 80 7f 80 7f 80 7f 80 7f 80 7f 80 7f 80 7f     ................
    578b:	80 80 7f 80 7f 80 7f 80 7f 80 7f 80 80 7f 80 7f     ................
    579b:	80 80 80 80 80 80 80 80 80 7f 80 7f 80 7f 80 7f     ................
    57ab:	80 7f 80 7f 80 7f 80 7f 7f 80 7f 80 7f 80 80 7f     ................
    57bb:	80 80 7f 80 7f 80 7f 80 7f 80 7f 80 7f 80 80 7f     ................
    57cb:	80 7f 80 7f 80 80 7f 80 7f 80 80 7f 80 7f 80 80     ................
    57db:	80 80 7f 80 80 7f 80 7f 80 7f 80 7f 80 80 7f 7f     ................
    57eb:	80 7f 80 80 7f 80 80 7f 80 7f 80 80 80 7f 80 7f     ................
    57fb:	80 7f 80 80 7f 80 7f 80 7f 80 7f 80 7f 80 7f 80     ................
    580b:	7f 80 7f 80 7f 80 7f 80 7f 80 7f 80 7f 80 80 7f     ................
    581b:	80 7f 80 7f 80 7f 80 7f 80 80 7f 80 7f 80 80 80     ................
    582b:	7f 80 80 80 80 80 7f 80 7f 80 80 7f 80 80 7f 80     ................
    583b:	7f 80 80 7f 80 7f 80 7f 80 7f 80 80 7f 80 80 80     ................
    584b:	80 7f 80 7f 80 7f 80 7f 80 7f 80 7f 80 80 80 80     ................
    585b:	7f 80 7f 80 7f 80 7f 80 80 80 7f 80 7f 80 80 7f     ................
    586b:	80 7f 80 80 80 7f 80 7f 80 80 80 7f 80 80 7f 80     ................
    587b:	7f 80 7f 80 7f 80 7f 7f 80 7f 80 7f 80 7f 80 7f     ................
    588b:	80 7f 80 80 7f 80 7f 80 80 80 80 7f 80 80 80 80     ................
    589b:	7f 80 7f 80 7f 80 7f 80 80 7f 80 7f 80 7f 80 7f     ................
    58ab:	80 7f 80 7f 80 80 7f 80 80 80 7f 80 7f 80 7f 80     ................
    58bb:	80 7f 80 7f 80 7f 7f 80 7f 80 7f 80 80 80 7f 80     ................
    58cb:	7f 80 7f 80 80 7f 80 7f 80 7f 80 80 7f 80 7f 80     ................
    58db:	7f 80 80 80 7f 80 80 7f 80 7f 80 7f 80 7f 80 7f     ................
    58eb:	80 80 7f 80 7f 80 7f 80 80 7f 80 7f 80 80 80 7f     ................
    58fb:	80 7f 80 7f 80 7f 80 80 7f 80 80 7f 80 7f 80 7f     ................
    590b:	80 7f 80 7f 80 7f 80 7f 80 7f 80 7f 80 80 80 80     ................
    591b:	7f 80 80 80 80 7f 80 7f 80 7f 7f 80 7f 80 7f 80     ................
    592b:	80 7f 80 7f 80 7f 80 7f 7f 80 80 80 80 7f 80 7f     ................
    593b:	80 7f 80 80 7f 80 7f 80 7f 80 7f 80 80 80 7f 80     ................
    594b:	7f 80 7f 80 7f 80 7f 80 7f 80 7f 80 80 7f 80 7f     ................
    595b:	80 7f 80 7f 80 7f 80 7f 80 7f 80 80 7f 80 80 7f     ................
    596b:	80 7f 80 80 7f 80 80 7f 80 7f 80 7f 80 80 7f 80     ................
    597b:	7f 80 80 7f 80 7f 80 7f 80 7f 80 7f 80 7f 80 7f     ................
    598b:	80 7f 80 80 7f 80 80 7f 80 7f 80 7f 7f 80 7f 80     ................
    599b:	7f 80 7f 80 7f 80 7f 80 7f 80 7f 80 80 80 80 80     ................
    59ab:	7f 80 7f 80 80 7f 80 7f 80 7f 80 7f 80 7f 80 7f     ................
    59bb:	80 7f 80 7f 7f 80 7f 80 7f 80 7f 80 7f 80 7f 80     ................
    59cb:	80 7f 80 7f 7f 80 7f 80 7f 80 7f 80 7f 80 80 7f     ................
    59db:	80 7f 80 7f 80 80 7f 80 7f 80 80 7f 80 7f 80 7f     ................
    59eb:	80 7f 80 80 7f 80 7f 80 7f 80 7f 7f 80 7f 80 7f     ................
    59fb:	80 80 7f 80 80 7f 80 7f 80 80 7f 80 7f 7f 80 7f     ................
    5a0b:	80 80 7f 80 7f 80 80 7f 80 80 7f 80 7f 80 80 80     ................
    5a1b:	7f 80 7f 80 7f 80 7f 80 7f 80 7f 80 7f 80 7f 80     ................
    5a2b:	7f 80 7f 80 7f 80 80 80 80 80 7f 80 80 80 80 80     ................
    5a3b:	7f 80 7f 80 7f 80 7f 7f 80 7f 80 7f 80 80 7f 80     ................
    5a4b:	7f 80 80 7f 80 7f 80 80 7f 80 80 7f 80 80 7f 80     ................
    5a5b:	7f 80 7f 80 7f 80 7f 80 80 7f 80 7f 80 7f 80 7f     ................
    5a6b:	80 80 7f 80 80 7f 80 7f 80 7f 80 80 7f 80 7f 80     ................
    5a7b:	80 7f 80 80 7f 80 7f 80 80 7f 80 7f 80 80 7f 80     ................
    5a8b:	80 7f 80 80 7f 80 7f 80 80 80 80 80 7f 80 7f 80     ................
    5a9b:	7f 80 7f 80 80 7f 80 80 80 80 80 80 7f 80 7f 80     ................
    5aab:	80 7f 80 7f 80 7f 80 7f 80 7f 80 7f 80 80 7f 80     ................
    5abb:	80 7f 80 7f 80 7f 80 7f 80 7f 80 7f 80 7f 80 80     ................
    5acb:	80 7f 80 7f 80 7f 80 7f 80 7f 80 80 7f 80 80 80     ................
    5adb:	80 7f 80 80 80 80 80 80 80 80 7f 80 7f 80 7f 80     ................
    5aeb:	7f 80 7f 80 7f 80 7f 80 7f 80 7f 80 80 80 7f 80     ................
    5afb:	7f 80 80 7f 80 7f 80 7f 80 7f 80 7f 80 7f 80 7f     ................
    5b0b:	80 7f 80 7f 80 80 7f 80 80 7f 80 7f 80 7f 80 7f     ................
    5b1b:	80 80 7f 80 7f 80 80 80 80 7f 80 80 80 80 7f 80     ................
    5b2b:	80 7f 80 7f 80 7f 80 7f 80 7f 80 80 7f 80 7f 80     ................
    5b3b:	80 80 7f 80 80 7f 80 7f 80 80 80 80 80 80 7f 80     ................
    5b4b:	7f 80 7f 80 7f 80 7f 80 7f 80 80 7f 80 7f 80 80     ................
    5b5b:	7f 80 80 7f 80 7f 80 7f 80 7f 80 80 80 7f 80 7f     ................
    5b6b:	80 7f 80 80 7f 80 7f 80 7f 80 7f 80 7f 80 7f 80     ................
    5b7b:	80 7f 80 7f 80 7f 80 7f 80 7f 80 7f 80 7f 80 7f     ................
    5b8b:	80 7f 80 7f 80 7f 80 80 7f 80 7f 80 7f 80 7f 80     ................
    5b9b:	7f 80 7f 82 85 85 86 86 86 87 86 86 86 86 86 87     ................
    5bab:	87 87 87 87 87 88 87 88 88 88 89 89 89 89 88 89     ................
    5bbb:	89 89 89 88 88 88 89 89 89 88 87 88 88 89 89 88     ................
    5bcb:	88 88 88 89 89 89 88 87 87 88 89 89 89 88 88 88     ................
    5bdb:	89 89 8a 8a 89 89 8a 8b 8b 8a 89 89 89 8a 8a 8a     ................
    5beb:	89 89 89 89 89 89 89 89 88 88 88 88 89 89 88 88     ................
    5bfb:	87 87 88 88 88 88 87 87 87 88 88 88 88 87 88 89     ................
    5c0b:	89 88 88 88 88 89 89 88 88 87 87 88 88 87 87 87     ................
    5c1b:	86 87 86 85 85 85 85 85 85 84 85 85 85 85 86 85     ................
    5c2b:	85 85 85 85 86 85 86 87 87 85 84 83 83 85 86 84     ................
    5c3b:	82 81 82 85 85 84 82 7f 80 85 86 86 84 80 80 84     ................
    5c4b:	86 85 83 81 80 82 84 83 82 81 80 81 81 80 81 81     ................
    5c5b:	81 80 80 80 80 81 81 80 80 7f 7f 81 82 81 80 7f     ................
    5c6b:	7e 7f 80 7f 7d 7e 81 82 80 7e 7c 7c 81 83 82 80     ~...}~...~||....
    5c7b:	7d 7c 7f 81 80 7f 7d 7c 7e 7f 7e 7e 7d 7c 7e 7e     }|....}|~.~~}|~~
    5c8b:	7e 7e 7d 7d 7d 7d 7c 7e 7e 7e 7e 7d 7c 7d 7e 7f     ~~}}}}|~~~~}|}~.
    5c9b:	7f 7e 7c 7c 7d 7d 7e 7d 7c 7d 7e 7f 7e 7c 7b 7c     .~||}}~}|}~.~|{|
    5cab:	7e 80 7f 7d 7c 7c 7e 7f 7e 7d 7c 7d 7e 7f 7e 7d     ~..}||~.~}|}~.~}
    5cbb:	7d 7d 7d 7e 7e 7e 7d 7d 7d 7d 7d 7d 7e 7e 7d 7d     }}}~~~}}}}}}~~}}
    5ccb:	7d 7d 7e 7f 80 7f 7e 7d 7d 7e 7e 7d 7d 80 80 80     }}~...~}}~~}}...
    5cdb:	7f 7c 7c 7f 81 80 80 7e 7d 7f 80 7f 7f 7e 7e 7f     .||....~}....~~.
    5ceb:	80 7f 7f 7e 7e 7f 7f 7f 7f 7e 7e 7f 7f 7e 80 81     ...~~....~~..~..
    5cfb:	81 80 7e 7d 7f 82 82 81 80 7f 7f 7f 7f 7e 7e 80     ..~}.........~~.
    5d0b:	82 83 81 7d 7c 7e 81 84 83 7f 7d 7f 81 82 82 7f     ...}|~....}.....
    5d1b:	7f 80 81 81 81 7f 80 83 83 81 80 7f 80 83 82 80     ................
    5d2b:	7f 7d 7e 80 80 80 80 7e 7e 7f 80 82 82 80 7f 81     .}~....~~.......
    5d3b:	83 83 82 80 7f 81 82 81 80 7e 7f 83 82 7f 7e 7c     .........~....~|
    5d4b:	7e 84 85 81 7f 7c 7d 81 82 81 81 80 7d 7e 7f 80     ~....|}.....}~..
    5d5b:	82 82 7f 7f 7f 80 81 81 80 7f 7f 7e 7f 7f 7e 7e     ...........~..~~
    5d6b:	7f 7f 7e 7d 7e 7e 81 82 7e 7e 80 81 82 82 7e 7d     ..~}~~..~~....~}
    5d7b:	7e 7d 7d 82 82 7e 7d 7c 7b 80 82 7f 7f 7f 7e 7e     ~}}..~}|{.....~~
    5d8b:	7d 7b 81 85 81 7d 78 77 7f 85 83 7f 7a 78 7e 83     }{...}xw....zx~.
    5d9b:	81 7e 7c 7b 7e 80 7d 7a 7c 7e 7f 7e 7b 79 7d 82     .~|{~.}z|~.~{y}.
    5dab:	81 7e 7d 7c 7f 80 7e 7b 78 7e 83 81 7d 7b 78 7c     .~}|..~{x~..}{x|
    5dbb:	84 80 7c 7c 7c 82 84 7d 79 7b 7d 82 81 7b 7a 7d     ..|||..}y{}..{z}
    5dcb:	80 80 7b 79 7c 7f 80 7e 78 75 80 86 82 7d 76 74     ..{y|..~xu...}vt
    5ddb:	7e 87 82 7c 7a 7a 81 85 7e 7a 7a 7c 80 80 79 7b     ~..|zz..~zz|..y{
    5deb:	80 7f 7f 7c 76 79 82 83 82 7d 77 76 7c 86 86 7c     ...|vy...}wv|..|
    5dfb:	78 77 79 86 87 7a 79 7c 7e 88 83 76 78 7d 7f 83     xwy..zy|~..vx}..
    5e0b:	7c 78 80 80 7e 7f 79 78 80 80 7e 7c 79 7e 81 7e     |x..~.yx..~|y~.~
    5e1b:	7f 7c 78 81 82 7d 7e 7d 7e 86 82 7a 7e 7d 7c 7e     .|x..}~}~..z~}|~
    5e2b:	7a 81 85 7a 7b 7c 76 81 88 79 7b 83 7a 79 83 81     z..z{|v..y{.zy..
    5e3b:	7e 83 7d 75 7d 85 80 7d 7e 7b 83 88 7e 7a 7c 7d     ~.}u}..}~{..~z|}
    5e4b:	7f 80 78 7e 86 7f 7a 7a 75 7e 89 7f 7b 82 7e 79     ..x~..zzu~..{.~y
    5e5b:	7a 7f 86 83 7d 7c 77 7e 87 82 80 81 7c 7f 80 7a     z...}|w~....|..z
    5e6b:	7b 80 86 88 7a 6f 77 84 88 84 76 72 81 87 84 80     {...zow...vr....
    5e7b:	78 76 7b 87 89 7b 7d 85 78 77 83 79 7e 90 7d 6f     xv{..{}.xw.y~.}o
    5e8b:	80 7e 7c 8d 80 78 82 7a 78 85 7d 7d 8c 7e 73 7c     .~|..x.zx.}}.~s|
    5e9b:	74 7f 95 7c 6f 7c 7d 7e 81 7a 79 81 83 79 78 83     t..|o|}~.zy..yx.
    5eab:	87 82 7c 7a 7b 80 81 7a 7a 84 84 7a 71 74 85 8a     ..|z{..zz..zqt..
    5ebb:	7d 76 74 7a 88 80 6f 7e 82 79 7f 78 75 8a 8a 77     }vtz..o~.y.xu..w
    5ecb:	76 7a 7a 80 7f 7b 80 83 76 6b 78 88 87 7e 71 6c     vzz..{..vkx..~ql
    5edb:	83 8a 7b 71 76 84 89 77 6f 78 89 8d 77 6a 74 7b     ..{qv..wox..wjt{
    5eeb:	86 8b 73 7a 81 6e 74 82 7d 8b 80 68 72 84 85 82     ..sz.nt.}..hr...
    5efb:	76 6e 7f 7f 7f 7d 7d 80 7a 6e 76 87 88 7f 71 6f     vn...}}.znv...qo
    5f0b:	80 86 7f 76 7b 78 7e 86 75 7c 81 77 79 7f 73 83     ...v{x~.u|.wy.s.
    5f1b:	8c 74 73 7c 75 89 8a 72 7c 82 74 7d 7d 75 8c 88     .ts|u..r|.t}}u..
    5f2b:	75 72 77 78 8f 8b 74 71 79 7c 87 86 79 7a 7e 7d     urwx..tqy|..yz~}
    5f3b:	7a 82 84 84 77 78 83 86 7d 77 71 80 91 7d 71 7b     z...wx..}wq..}q{
    5f4b:	7c 8a 88 74 7e 83 83 82 81 71 88 91 7d 78 76 7d     |..t~....q..}xv}
    5f5b:	8f 8c 76 78 7d 81 80 7e 89 82 7b 7b 78 87 8d 8c     ..vx}..~..{{x...
    5f6b:	80 75 79 87 85 7d 8a 8a 80 76 75 84 94 89 7c 77     .uy..}...vu...|w
    5f7b:	7f 82 80 86 83 7f 8b 7f 72 8a 94 87 7f 77 77 8a     ........r....ww.
    5f8b:	96 84 79 7f 7c 86 8a 85 83 88 7f 7f 82 79 8d 8c     ..y.|........y..
    5f9b:	7c 81 82 84 91 88 76 7f 80 8d 94 7a 78 82 86 91     |.....v....zx...
    5fab:	8b 72 77 92 90 7d 7b 84 8a 8a 82 82 80 7d 88 90     .rw..}{......}..
    5fbb:	89 82 71 86 93 84 84 7e 7b 80 8e 8f 7d 81 85 82     ..q....~{...}...
    5fcb:	90 84 7d 76 82 96 88 7f 84 7d 8d 91 7b 71 79 a0     ..}v.....}..{qy.
    5fdb:	8c 7c 7f 7f 93 87 79 77 83 9f 8b 6d 78 90 98 82     .|....yw...mx...
    5feb:	74 7d 83 8e 8e 71 81 96 88 7c 78 85 89 8b 81 7a     t}...q...|x....z
    5ffb:	91 8a 79 7d 7c 8f 98 7a 77 81 85 89 82 82 89 85     ..y}|..zw.......
    600b:	82 7d 84 88 88 7b 6d 95 8f 80 7f 78 8a 87 78 79     .}...{m....x..xy
    601b:	90 8c 82 82 74 7c 91 87 7c 89 84 72 84 8b 88 83     ....t|..|..r....
    602b:	72 7c 8d 8b 7d 7b 7d 84 8a 77 7e 87 83 85 76 80     r|..}{}..w~...v.
    603b:	8c 84 74 76 8d 8a 83 78 76 89 90 7c 6c 7b 8c 92     ..tv...xv..|l{..
    604b:	82 76 77 7b 85 8a 83 76 7e 82 7b 84 7f 84 6d 81     .vw{...v~.{...m.
    605b:	8c 7c 85 73 7d 88 86 67 81 93 7e 7c 77 78 8f 86     .|.s}..g..~|wx..
    606b:	72 74 82 99 82 6a 68 91 99 78 6d 72 82 97 74 6c     rt...jh..xmr..tl
    607b:	83 87 87 70 77 7f 89 7f 72 82 8f 7c 72 6c 82 9f     ...pw...r..|rl..
    608b:	78 70 70 83 87 8b 74 71 89 7b 7e 80 89 7c 7d 6a     xpp...tq.{~..|}j
    609b:	7f 95 83 7f 69 73 87 85 82 75 77 87 8b 7a 72 7b     ....is...uw..zr{
    60ab:	7f 7d 88 88 73 84 80 78 70 86 87 7d 7a 7d 86 87     .}..s..xp..}z}..
    60bb:	76 77 7d 7d 94 84 75 6e 84 91 85 74 7f 6b 84 95     vw}}..un...t.k..
    60cb:	78 76 79 84 89 82 7a 79 79 91 7a 87 83 82 79 6c     xvy...zyy.z...yl
    60db:	8b 8f 89 6b 73 88 96 81 75 6f 7d 99 88 7d 7a 7f     ...ks...uo}..}z.
    60eb:	74 89 95 7d 73 7f 8c 84 6e 7b 8c 7f 81 88 89 79     t..}s...n{.....y
    60fb:	7e 80 75 8b 95 7d 75 83 88 91 65 72 9e 81 81 7c     ~.u..}u...er...|
    610b:	80 86 8c 7c 73 85 95 85 81 74 77 92 93 79 6e 7f     ...|s....tw..yn.
    611b:	8c 9c 63 6c 92 96 7e 73 88 89 7a 7d 81 8d 89 80     ..cl..~s..z}....
    612b:	83 7c 87 78 85 86 7e 8a 87 80 79 71 8c 93 7d 79     .|.x..~...yq..}y
    613b:	85 92 75 76 88 7f 8d 81 83 88 77 70 83 8f 88 8a     ..uv......wp....
    614b:	70 73 8d 92 7d 71 7c 93 8c 7d 67 8f 92 76 79 7c     ps..}q|..}g..vy|
    615b:	8f 81 7a 7e 89 7d 72 82 98 82 7b 7b 81 78 80 91     ..z~.}r...{{.x..
    616b:	85 7f 77 69 8d 92 79 7e 72 82 87 81 6c 85 8f 83     ..wi..y~r...l...
    617b:	7b 81 6c 81 91 7a 7f 8a 86 59 7f 95 87 6c 7a 86     {.l..z...Y...lz.
    618b:	85 81 7c 85 76 72 81 9c 82 61 77 8e 85 7b 6a 81     ..|.vr...aw..{j.
    619b:	88 76 71 81 86 78 74 80 85 89 78 63 84 8c 81 7c     .vq..xt...xc...|
    61ab:	83 65 72 8e 88 74 68 80 85 8a 79 70 77 75 86 89     .er..th...ypwu..
    61bb:	85 6d 68 7a 84 89 6d 79 78 7d 73 73 7f 75 85 7b     .mhz..myx}ss.u.{
    61cb:	82 6e 73 85 72 81 7b 7f 7d 71 75 79 7d 7c 77 7b     .ns.r.{.}quy}|w{
    61db:	72 84 7e 63 7d 80 7e 74 78 7d 7c 77 6d 6f 87 8d     r.~c}.~tx}|wmo..
    61eb:	6c 70 83 68 75 7c 7c 82 7b 6a 76 91 6c 6b 6e 89     lp.hu||.{jv.lkn.
    61fb:	91 7b 6c 65 70 85 84 71 76 7e 7b 74 6a 75 83 84     .{lep..qv~{tju..
    620b:	7b 75 75 73 78 71 82 7f 72 79 80 74 6f 72 82 7c     {uusxq..ry.tor.|
    621b:	70 7e 88 79 5b 79 86 7f 71 7d 7e 7a 77 60 80 8b     p~.y[y..q}~zw`..
    622b:	7e 76 73 6a 81 82 73 75 7c 7a 84 7d 6a 7e 6e 7d     ~vsj..su|z.}j~n}
    623b:	84 84 7e 7d 5e 6d 92 82 78 71 88 81 6d 6d 8c 7b     ..~}^m..xq..mm.{
    624b:	77 8b 7c 76 6e 78 81 84 7f 7b 7d 67 7e 8a 7b 70     w.|vnx...{}g~.{p
    625b:	88 8a 6c 7c 7e 83 7b 79 84 91 68 66 97 8a 6c 70     ..l|~.{y..hf..lp
    626b:	89 98 74 66 88 87 74 76 90 8c 77 5c 83 99 79 6b     ..tf..tv..w\..yk
    627b:	7b 96 88 6e 6a 8c 85 6a 91 8e 7e 6f 60 93 8e 72     {..nj..j..~o`..r
    628b:	78 91 80 68 7f 84 80 7e 85 87 7a 78 77 86 88 7e     x..h...~..zxw..~
    629b:	80 6f 76 8d 88 6f 7d 85 82 7e 7a 7f 88 85 81 82     .ov..o}..~z.....
    62ab:	6a 80 93 85 76 7c 7d 8c 84 6f 7d 90 90 72 79 70     j...v|}..o}..ryp
    62bb:	93 94 75 73 86 8f 6f 88 8c 8a 76 70 8b 8b 83 8c     ..us..o...vp....
    62cb:	72 73 94 82 7d 86 84 86 8f 78 79 88 7e 8d 98 83     rs..}....xy.~...
    62db:	73 72 84 93 84 78 8c 87 76 84 8f 8b 81 6c 97 b0     sr...x..v....l..
    62eb:	71 69 82 93 89 87 81 81 89 7e 8e 8f 81 83 8a 7e     qi.......~.....~
    62fb:	8f a1 75 71 92 8d 84 8a 84 86 8f 85 83 87 86 86     ..uq............
    630b:	8b 92 8f 86 77 80 9a 92 82 83 8e 7c 92 a0 7d 79     ....w......|..}y
    631b:	8c 92 91 8f 8c 8b 73 85 9e 97 7f 7b 92 95 7e 86     ......s....{..~.
    632b:	9a 88 86 90 90 87 95 77 82 a7 8f 7d 8d a1 74 7e     .......w...}..t~
    633b:	99 9a 8a 7a 8f a0 8c 7b 8d 88 8e 9e 90 85 8f 78     ...z...{.......x
    634b:	85 9f 97 84 8a 8e 8e 87 7c 9a 94 8c 85 92 87 84     ........|.......
    635b:	8b 94 99 71 88 9e 90 81 90 8c 83 85 8b 94 97 8b     ...q............
    636b:	7b 8a 84 8d 8f 90 89 8a 84 86 8a 89 95 7d 8d 91     {............}..
    637b:	94 7e 6e 94 99 90 7b 83 90 89 78 89 92 87 8b 85     .~n...{...x.....
    638b:	83 7b 91 95 7b 7f 94 91 78 7b 92 92 85 7f 83 85     .{..{...x{......
    639b:	87 88 88 85 7c 85 8e 88 84 87 7d 89 89 7e 7e 93     ....|.....}..~~.
    63ab:	8b 6e 81 90 83 77 8a 95 86 73 7c 85 88 89 8e 89     .n...w...s|.....
    63bb:	74 6a 8c 94 82 75 87 8c 73 7f 80 8f 83 78 81 8d     tj...u..s....x..
    63cb:	8a 71 6c 8e 94 7b 73 94 7c 66 85 91 7d 7d 85 7e     .ql..{s.|f..}}.~
    63db:	88 70 8d 72 7e 88 8b 7b 81 79 60 95 8b 7b 7b 85     .p.r~..{.y`..{{.
    63eb:	6c 8b 91 76 70 84 85 87 7c 73 75 71 7c 89 80 6b     l..vp...|suq|..k
    63fb:	76 83 81 6d 75 7a 80 72 82 85 71 59 78 97 74 69     v..muz.r..qYx.ti
    640b:	78 84 73 69 6f 82 7c 75 71 7c 75 67 7a 88 6b 6b     x.sio.|uq|ugz.kk
    641b:	8f 7e 62 5f 88 83 70 6c 7c 83 64 6c 85 7e 66 70     .~b_..pl|.dl.~fp
    642b:	8c 86 55 70 86 7d 7a 74 69 70 90 74 64 77 83 75     ..Up.}ztip.tdw.u
    643b:	6f 7d 7e 74 75 77 7a 77 7b 77 7b 76 6f 79 7c 7e     o}~tuwzw{w{voy|~
    644b:	7b 74 6e 80 84 70 75 7f 83 74 6c 80 7b 77 7d 89     {tn..pu..tl.{w}.
    645b:	79 71 63 8b 85 7c 7c 81 76 64 8c 81 7e 68 8b 96     yqc..||.vd..~h..
    646b:	7c 56 73 98 8c 76 7f 82 70 7a 7e 8e 78 76 82 99     |Vs..v..pz~.xv..
    647b:	76 5f 79 96 90 79 71 81 8b 76 77 81 8d 83 84 7e     v_y..yq..vw....~
    648b:	80 78 7a 89 85 81 97 7c 62 7f 9b 83 74 7b 8f a2     .xz....|b...t{..
    649b:	72 6c 79 8b 90 92 89 73 6b 8d 8f 7f 76 8b 8d 8d     rly....sk...v...
    64ab:	7e 7e 7e 73 95 95 8b 79 8e 68 83 87 9a 80 7e 79     ~~~s...y.h....~y
    64bb:	8c a6 6f 76 70 a7 8e 89 85 7e 65 8f 98 84 83 83     ..ovp....~e.....
    64cb:	80 88 97 79 84 7c 86 93 9f 7d 73 72 8d 93 8e 82     ...y.|...}sr....
    64db:	76 84 97 91 75 74 87 95 94 8e 79 71 83 91 88 86     v...ut....yq....
    64eb:	87 80 7e 95 83 88 67 87 98 93 81 7c 7f 73 89 8c     ..~...g....|.s..
    64fb:	93 7b 79 70 a4 8b 7a 5d 83 a0 8d 80 76 78 71 8b     .{yp..z]....vxq.
    650b:	80 8b 7e 81 66 86 93 83 6a 63 8f 9f 7f 5f 7a 8e     ..~.f...jc..._z.
    651b:	6f 63 99 89 6c 69 76 84 8c 77 69 76 7b 81 7f 75     oc..liv..wiv{..u
    652b:	7b 71 5b 89 8b 6c 68 77 74 7f 7f 6e 71 72 75 7b     {q[..lhwt..nqru{
    653b:	81 70 77 73 61 78 81 7c 68 6e 79 76 7d 74 75 66     .pwsax.|hnyv}tuf
    654b:	77 7a 86 70 79 76 5a 7c 80 82 6c 77 68 83 88 70     wz.pyvZ|..lwh..p
    655b:	6d 71 83 80 81 79 7d 69 72 86 82 78 7a 79 7a 7d     mq...y}ir..xzyz}
    656b:	81 80 82 72 75 87 92 84 71 7c 7a 86 82 86 83 84     ...ru...q|z.....
    657b:	77 7b 90 8a 86 77 7d 8a 97 88 7c 82 84 86 81 92     w{...w}...|.....
    658b:	90 82 76 8c 93 90 8e 7a 89 83 9e 95 83 86 8d 87     ..v....z........
    659b:	82 9f 8f 8b 88 87 8f 94 9e 83 8b 82 97 a9 89 88     ................
    65ab:	8b 9c 81 8d 9b 9a 97 7b 8a 99 a5 8f 85 93 87 a2     .......{........
    65bb:	9a 90 8d 9b 80 86 a5 9a 90 84 8f 8f 97 98 99 8b     ................
    65cb:	85 88 ac 98 87 86 9a 8d 83 96 9a 99 85 77 94 a3     .............w..
    65db:	92 95 84 8b 86 a8 8e 86 94 96 8b 7c 97 9a 99 88     ...........|....
    65eb:	77 93 9f 92 92 89 8f 83 9a 91 90 8a 8e 8f 7c 87     w.............|.
    65fb:	99 99 81 78 80 9d 8c 92 82 8c 83 85 93 8c 92 7a     ...x...........z
    660b:	85 82 80 92 8b 86 76 75 94 8c 93 7f 81 7e 84 92     ......vu.....~..
    661b:	83 8c 81 81 89 76 7d 94 91 79 65 86 90 87 86 7f     .....v}..ye.....
    662b:	7f 7e 76 8b 8e 85 74 81 7e 70 8e 8b 80 69 73 85     .~v...t.~p...is.
    663b:	8d 81 85 75 7d 79 78 8c 88 80 6a 86 80 71 83 88     ...u}yx...j..q..
    664b:	7a 75 6e 8b 83 81 7e 7b 81 6c 7e 8a 85 78 77 7e     zun...~{.l~..xw~
    665b:	7d 73 85 78 83 81 6d 77 82 8b 7e 78 7d 7b 76 7f     }s.x..mw..~x}{v.
    666b:	89 7f 77 75 83 7a 76 83 80 89 67 71 86 8a 80 80     ..wu.zv...gq....
    667b:	7f 7b 77 73 8c 8d 7b 6a 84 91 6d 6f 86 93 79 61     .{ws..{j..mo..ya
    668b:	7e 8d 8a 7b 85 7a 7f 72 7b 97 82 7b 73 84 8a 73     ~..{.z.r{..{s..s
    669b:	79 82 8f 84 65 76 8e 91 81 7e 7f 7d 72 85 8c 89     y...ev...~.}r...
    66ab:	7f 76 7f 85 82 74 82 89 8b 6d 6f 8e 8f 8c 76 76     .v...t...mo...vv
    66bb:	88 7f 76 84 93 89 6e 70 93 8d 74 69 8b 9d 7a 68     ..v...np..ti..zh
    66cb:	66 9f 9d 72 6c 7f 98 77 6a 83 9f 86 61 6f 93 9b     f..rl..wj...ao..
    66db:	6a 61 8a a0 7b 5d 6c a1 98 64 6f 85 94 71 65 8e     ja..{]l..do..qe.
    66eb:	9c 75 5f 74 9b 8b 6b 67 7f 9d 72 6e 6a 8b 96 70     .u_t..kg..rnj..p
    66fb:	79 75 83 80 6c 7b 90 80 6f 66 84 92 7a 6a 66 90     yu..l{..of..zjf.
    670b:	89 72 67 71 96 7d 73 70 78 88 75 70 7b 8b 75 69     .rgq.}spx.up{.ui
    671b:	6e 8b 8c 71 62 74 91 7a 6f 65 81 89 76 76 6c 7b     n..qbt.zoe..vvl{
    672b:	7f 7a 6f 78 7c 79 72 6b 87 83 77 5b 6a 90 83 73     .zox|yrk..w[j..s
    673b:	55 78 92 7f 67 60 83 85 75 65 74 84 7c 63 64 8f     Ux..g`..uet.|cd.
    674b:	86 6c 51 74 99 7b 62 51 8d 8b 77 5a 67 91 7e 70     .lQt.{bQ..wZg.~p
    675b:	56 83 7e 7d 5c 68 94 7f 71 41 7e 95 7f 62 47 8d     V.~}\h..qA~..bG.
    676b:	94 7a 4d 67 94 89 65 4f 88 8e 7c 49 6d 9a 8d 5e     .zMg..eO..|Im..^
    677b:	3e 8b 9d 7b 54 52 93 95 6b 59 6e 97 86 64 59 83     >..{TR..kYn..dY.
    678b:	8b 7b 5b 6a 97 8a 69 49 7d 99 84 61 4d 8c 9d 7c     .{[j..iI}..aM..|
    679b:	57 62 96 95 69 51 7f 94 87 57 65 9c 93 6a 44 7b     Wb..iQ...We..jD{
    67ab:	a7 8b 5d 49 8e a5 79 5a 63 9b 96 69 55 7f 98 88     ..]I..yZc..iU...
    67bb:	5d 63 9b 96 71 48 73 a9 90 65 45 86 ad 83 5c 58     ]c..qHs..eE...\X
    67cb:	9a 9f 71 4f 79 a4 89 5b 5b a2 a0 6d 43 70 b2 8e     ..qOy..[[..mCp..
    67db:	62 48 8a ac 7d 59 63 9b 99 6d 53 7b 9d 89 5d 64     bH..}Yc..mS{..]d
    67eb:	9a 98 6e 4d 6f a6 8e 67 4d 7d ab 80 5f 5b 94 9b     ..nMo..gM}.._[..
    67fb:	6f 53 73 9f 83 63 5d 96 99 6b 4e 66 a2 8c 6c 4c     oSs..c]..kNf..lL
    680b:	75 a3 80 62 58 8c 94 77 53 68 99 84 6a 53 89 9c     u..bX..wSh..jS..
    681b:	6e 54 54 9c 91 6c 50 61 a2 87 61 56 7d 98 79 54     nTT..lPa..aV}.yT
    682b:	5e 90 8b 6d 52 77 a0 75 56 4e 8d 9c 6b 5a 55 97     ^..mRw.uVN..kZU.
    683b:	8f 65 5d 6d 94 81 63 55 85 8d 77 5f 62 a0 7f 66     .e]m..cU..w_b..f
    684b:	4d 71 a9 79 68 4d 7f a0 73 67 5c 8e 93 71 54 6f     Mq.yhM..sg\..qTo
    685b:	99 86 6e 50 8e 99 74 5c 50 a6 95 72 5a 59 aa 89     ..nP..t\P..rZY..
    686b:	72 59 79 a8 82 61 55 95 9c 7f 58 6a a9 8e 6f 47     rYy..aU...Xj..oG
    687b:	7c b8 83 6e 48 8d b1 7a 69 5d a0 a3 73 54 73 ae     |..nH..zi]..sTs.
    688b:	95 6f 57 8e b0 80 62 50 a8 ad 7e 5f 55 b3 9f 79     .oW...bP..~_U..y
    689b:	5c 76 b8 94 67 57 92 b3 89 65 63 aa a7 79 55 6d     \v..gW...ec..yUm
    68ab:	bc a1 75 56 76 ba 96 6f 65 8c b8 86 63 68 a0 b0     ..uVv..oe...ch..
    68bb:	7e 65 73 b1 a0 6f 59 80 c4 95 6d 58 89 c1 88 6d     ~es..oY...mX...m
    68cb:	6a 9f b3 7a 67 70 ad a7 78 69 7c b8 96 6e 5c 8f     j..zgp..xi|..n\.
    68db:	c5 89 70 58 97 be 81 72 68 a8 b1 79 66 6f b7 a5     ..pX...rh..yfo..
    68eb:	76 66 7f bf 93 6a 60 93 c4 88 6a 60 9c ba 7d 6c     vf...j`...j`..}l
    68fb:	71 ac b1 71 67 78 b2 a3 6e 71 81 b8 92 68 6d 8d     q..qgx..nq...hm.
    690b:	bd 8a 6b 6b 91 b2 83 71 78 a1 ab 75 6d 7b a2 a5     ..kk...qx..um{..
    691b:	74 72 82 a6 9d 6c 72 81 ab 9a 6c 74 81 a8 8d 74     tr...lr...lt...t
    692b:	7d 8c a8 83 71 7a 89 aa 81 74 80 88 ac 75 73 7e     }...qz...t...us~
    693b:	89 ae 74 77 7b 87 a1 77 80 80 95 95 73 7c 78 99     ..tw{..w....s|x.
    694b:	92 76 81 78 9c 8d 70 7b 72 a4 8e 71 77 73 9d 89     .v.x..p{r..qws..
    695b:	78 7a 80 9b 7f 73 76 7e 9e 7c 78 7a 7e 9b 73 77     xz...sv~.|xz~.sw
    696b:	75 7d a1 75 78 72 77 98 79 7f 75 80 90 77 7b 6b     u}.uxrw.y.u..w{k
    697b:	80 95 7a 7c 69 7e 96 75 79 5f 84 9e 75 74 5b 84     ..z|i~.uy_..ut[.
    698b:	98 7a 70 67 8f 8f 75 67 67 90 8f 71 6a 6c 8e 8d     .zpg..ugg..qjl..
    699b:	68 6b 6b 91 8e 66 6e 6b 87 88 6b 76 78 87 80 6c     hkk..fnk..kvx..l
    69ab:	73 6f 84 84 6e 78 6e 7e 89 69 7b 6d 79 91 68 80     so..nxn~.i{my.h.
    69bb:	67 70 8d 71 82 73 78 84 75 79 6c 78 86 79 7c 6b     gp.q.sx.uylx.y|k
    69cb:	78 86 76 7c 6c 79 87 7b 7c 6b 6f 86 80 7f 7d 72     x.v|ly.{|ko...}r
    69db:	80 7d 7b 7a 70 81 83 81 7a 6a 81 86 84 7a 69 7f     .}{zp...zj...zi.
    69eb:	8b 87 79 61 79 94 8c 83 66 76 93 88 7e 64 7a 99     ..yay...fv..~dz.
    69fb:	88 7f 63 77 a0 89 80 64 70 a2 8e 7d 65 6d a0 90     ..cw...dp..}em..
    6a0b:	82 72 6e 9b 8d 7f 73 6f 98 91 84 74 6b 97 97 85     .rn...so...tk...
    6a1b:	75 67 8b a0 8b 72 67 84 9e 8f 7d 6d 85 99 89 7c     ug...rg...}m...|
    6a2b:	70 7e 9a 8c 7d 76 76 9b 90 7d 7d 6e 8e 99 81 7e     p~..}vv..}}n...~
    6a3b:	6c 82 99 8c 85 71 7d 92 90 83 71 73 93 95 81 75     l....q}...qs...u
    6a4b:	6b 97 9b 80 79 63 8a a5 83 77 65 7e a4 8a 7a 6f     k...yc...we~..zo
    6a5b:	78 9e 8e 79 73 6b 9a 93 7b 7b 64 97 96 7d 7d 64     x..ysk..{{d..}}d
    6a6b:	83 98 89 7c 65 74 95 8f 85 6e 6e 92 8f 81 72 64     ...|et...nn...rd
    6a7b:	8c 96 82 7c 5c 83 9b 81 80 62 72 98 8a 7d 69 68     ...|\....br..}ih
    6a8b:	8d 8c 85 73 67 87 89 85 77 62 79 8f 88 7c 66 69     ...sg...wby..|fi
    6a9b:	8e 8c 83 6e 5e 7f 93 86 70 5f 71 8f 8b 79 65 6f     ...n^...p_q..yeo
    6aab:	8a 87 7c 65 65 89 8b 7b 6c 60 83 8e 7d 74 61 74     ..|ee..{l`..}tat
    6abb:	8c 81 74 68 66 84 85 7b 73 66 7f 84 7d 75 60 73     ..thf..{sf..}u`s
    6acb:	88 80 7a 65 65 86 85 81 6d 60 78 83 86 72 60 6d     ..zee...m`x..r`m
    6adb:	7e 8a 7e 68 6b 7c 83 80 6d 65 76 85 80 74 66 6e     ~.~hk|..mev..tfn
    6aeb:	86 85 7d 69 68 79 84 85 6e 66 6e 80 8b 7a 6a 6f     ..}ihy..nfn..zjo
    6afb:	7b 88 84 67 67 78 86 89 71 60 72 88 8f 7d 5f 6c     {..ggx..q`r..}_l
    6b0b:	7a 90 85 62 69 6f 8f 8e 6e 6c 71 87 8b 78 66 6b     z..bio..nlq..xfk
    6b1b:	82 8b 81 6d 64 7c 8e 89 74 69 71 7c 8e 7c 6e 6e     ...md|..tiq|.|nn
    6b2b:	70 8d 88 75 74 71 84 8c 79 6e 6c 7d 8d 84 73 65     p..utq..ynl}..se
    6b3b:	78 8e 8c 7c 66 6d 7f 8f 85 6c 68 72 91 8d 74 6f     x..|fm...lhr..to
    6b4b:	72 89 8c 79 6b 6c 81 91 82 6e 65 7e 93 89 76 66     r..ykl...ne~..vf
    6b5b:	73 83 8f 7d 68 6f 77 91 85 73 75 74 87 88 78 6d     s..}how..sut..xm
    6b6b:	6e 80 8d 82 70 68 7b 8f 8a 78 69 70 81 90 7c 69     n...ph{..xip..|i
    6b7b:	6e 77 91 84 72 74 76 84 89 76 6c 72 7e 8d 7f 70     nw..rtv..vlr~..p
    6b8b:	6b 7b 8c 89 79 69 71 7c 8f 7e 6a 6f 73 91 86 71     k{..yiq|.~jos..q
    6b9b:	77 73 84 89 74 71 72 7d 8c 7c 73 6e 77 8d 85 7c     ws..tqr}.|snw..|
    6bab:	6f 6d 7d 87 82 72 6d 72 89 87 7b 77 70 7e 89 7d     om}..rmr..{wp~.}
    6bbb:	72 6f 77 8b 85 75 6c 75 8a 8b 80 6f 6c 79 88 87     row..ulu...oly..
    6bcb:	73 6f 6f 86 8b 7c 7b 6f 7b 8b 80 77 70 73 8a 88     soo..|{o{..wps..
    6bdb:	7b 70 71 86 8e 87 72 6b 76 88 8d 79 70 6d 83 91     {pq...rkv..ypm..
    6beb:	83 7d 70 76 8d 88 7b 72 6f 89 8f 82 74 6d 83 93     .}pv..{ro...tm..
    6bfb:	8f 78 6a 76 87 95 82 71 6f 7e 96 8b 82 73 76 90     .xjv...qo~...sv.
    6c0b:	8e 80 76 70 8a 95 86 7c 70 85 94 92 81 70 79 88     ..vp...|p....py.
    6c1b:	98 88 76 73 83 98 8f 86 78 7a 92 94 85 7a 75 8b     ..vs....xz...zu.
    6c2b:	9a 8d 80 74 83 97 9b 8a 75 7a 86 99 96 7c 78 7e     ...t....uz...|x~
    6c3b:	95 9e 8d 81 79 8d 9a 8f 83 78 8a 99 93 8a 79 88     ....y....x....y.
    6c4b:	96 9a 90 7c 7d 8c 9b 93 86 78 88 9b 97 92 80 80     ...|}....x......
    6c5b:	95 9b 92 83 7b 8d 9c 9a 8a 77 86 98 a2 9b 7a 7d     ....{....w....z}
    6c6b:	8a 97 a5 85 7c 84 90 a6 96 85 83 8a 9b 97 85 80     ....|...........
    6c7b:	8d 98 97 8c 7f 8d 96 9b 92 81 85 8a 99 94 88 82     ................
    6c8b:	86 97 96 91 8b 85 91 95 8e 87 81 93 96 90 8a 7e     ...............~
    6c9b:	91 9b 93 8e 7d 80 99 96 8d 83 78 93 9c 91 8c 7c     ....}.....x....|
    6cab:	86 99 96 8f 7d 7c 8e 9a 97 84 77 83 96 9e 98 7a     ....}|....w....z
    6cbb:	7a 85 91 a0 86 7c 7e 86 a0 95 87 80 81 94 92 87     z....|~.........
    6ccb:	7f 85 92 90 88 85 84 8f 99 8b 85 7f 81 96 8f 8b     ................
    6cdb:	7f 7b 94 92 8f 8d 80 8a 8f 85 87 8d 8c 8a 84 88     .{..............
    6ceb:	8d 92 93 80 87 86 89 9b 85 83 80 83 9e 92 85 84     ................
    6cfb:	85 95 99 88 7e 80 92 99 8f 83 7b 8c 9f 97 88 7f     ....~.....{.....
    6d0b:	7c 94 a1 8b 81 77 87 a4 97 89 7e 82 98 9d 90 80     |....w....~.....
    6d1b:	79 8a 9e 9d 87 76 83 94 a6 9a 7c 7d 82 96 a3 88     y....v....|}....
    6d2b:	81 7c 88 a6 95 8b 86 81 95 99 8c 81 84 94 99 90     .|..............
    6d3b:	84 83 8f a1 93 85 84 80 99 98 8b 85 7c 93 9a 90     ............|...
    6d4b:	90 85 86 98 94 8a 89 82 90 9b 91 84 82 8a 9a 9e     ................
    6d5b:	8a 7f 83 8c 9c 93 83 81 83 9b 9b 8e 86 80 8e 9b     ................
    6d6b:	94 86 7d 85 9b 9a 8a 7e 7d 95 a6 93 83 7b 7f 98     ..}....~}....{..
    6d7b:	9f 8d 81 78 8a a0 98 8e 7b 80 95 99 91 7f 7a 8f     ...x....{.....z.
    6d8b:	9b 97 85 78 86 9c a1 8b 7a 7b 88 9f 97 82 7c 7b     ...x....z{....|{
    6d9b:	97 9f 92 82 78 89 98 98 8a 78 7c 95 9c 91 7f 74     ....x....x|....t
    6dab:	88 a0 9c 88 77 78 89 9e 96 81 79 79 96 a1 8d 80     ....wx....yy....
    6dbb:	75 89 98 91 85 75 84 96 93 8a 7a 7d 94 99 8b 7f     u....u....z}....
    6dcb:	76 81 96 91 87 7b 78 8f 95 8f 86 78 81 92 91 8a     v....{x....x....
    6ddb:	7c 76 8a 97 8e 80 74 7f 96 97 89 78 77 82 8f 92     |v....t....xw...
    6deb:	84 7e 77 84 97 8e 85 7a 79 8d 90 88 78 76 8d 90     .~w....zy...xv..
    6dfb:	8c 7f 73 85 94 90 83 75 75 84 91 90 80 73 78 8b     ..s....uu....sx.
    6e0b:	94 8e 7b 72 7f 8e 92 82 70 77 8c 96 87 73 75 81     ..{r....pw...su.
    6e1b:	95 93 7b 74 76 82 92 8a 7d 76 71 8d 93 85 7e 6f     ..{tv...}vq...~o
    6e2b:	7d 91 8e 82 6f 73 89 93 8c 74 6c 7f 8d 92 88 70     }...os...tl....p
    6e3b:	72 80 87 8d 84 77 75 79 8f 8f 7f 7a 71 80 91 87     r....wuy...zq...
    6e4b:	7a 6f 7a 90 8c 82 71 70 87 8f 8e 7d 6b 78 81 8b     zoz...qp...}kx..
    6e5b:	8f 78 74 74 7e 94 89 7b 75 73 86 8f 84 75 70 82     .xtt~..{us...up.
    6e6b:	8e 89 7a 6c 78 8b 8c 88 75 6e 7f 81 86 89 7a 76     ..zlx...un....zv
    6e7b:	75 81 8f 84 7c 73 77 87 89 84 77 72 82 87 85 7d     u...|sw...wr...}
    6e8b:	72 79 84 88 86 7a 75 7b 80 84 83 7d 79 7a 7b 85     ry...zu{...}yz{.
    6e9b:	86 7d 7a 78 7e 86 86 7c 74 7c 82 85 83 73 77 7f     .}zx~..|t|...sw.
    6eab:	83 8a 7e 74 79 7e 87 81 7c 7b 77 7d 80 82 80 7a     ..~ty~..|{w}...z
    6ebb:	7b 7d 7f 82 7e 7a 7c 7d 7e 80 7a 78 7f 7e 80 82     {}..~z|}~.zx.~..
    6ecb:	78 79 7e 7f 80 77 7c 7f 79 7d 7a 7d 82 7e 7a 78     xy~..w|.y}z}.~zx
    6edb:	7a 7e 83 80 75 76 7d 80 81 7b 74 78 81 83 7d 75     z~..uv}..{tx..}u
    6eeb:	78 7d 7f 7d 78 78 79 7d 7d 7e 7b 78 7c 7c 7b 7b     x}.}xxy}}~{x||{{
    6efb:	7c 7d 7b 7a 78 7b 7e 7a 7b 7a 7a 7e 7b 78 7c 7c     |}{zx{~z{zz~{x||
    6f0b:	7d 7d 75 78 7d 7b 7e 7b 76 7a 7d 7d 79 77 78 7e     }}ux}{~{vz}}ywx~
    6f1b:	82 7a 74 76 7c 82 7e 76 74 7a 7e 7e 79 76 7b 80     .ztv|.~vtz~~yv{.
    6f2b:	7e 75 73 7a 81 80 78 74 77 7c 7f 7c 76 77 7e 83     ~usz..xtw|.|vw~.
    6f3b:	7c 73 73 7b 82 80 78 73 76 7c 81 7c 76 78 7b 7f     |ss{..xsv|.|vx{.
    6f4b:	7d 75 76 7b 80 7f 77 74 77 7d 82 7c 75 78 7b 80     }uv{..wtw}.|ux{.
    6f5b:	7f 75 74 7a 80 80 79 74 76 7a 7f 7f 7a 78 7a 7e     .utz..ytvz..zxz~
    6f6b:	7d 78 75 7b 81 7e 78 76 78 7b 7f 7b 79 7a 7b 7f     }xu{.~xvx{.{yz{.
    6f7b:	7d 76 76 7a 7f 7f 79 77 75 79 80 80 7a 76 78 7e     }vvz..ywuy..zvx~
    6f8b:	7f 7a 76 76 7b 7f 7d 77 74 77 7c 80 7c 77 77 7a     .zvv{.}wtw|.|wwz
    6f9b:	7e 7d 76 74 78 7e 7e 79 73 74 7a 7d 7e 78 75 77     ~}vtx~~ystz}~xuw
    6fab:	7b 7d 77 73 76 7a 7d 78 75 75 75 7a 7c 77 76 75     {}wsvz}xuuuz|wvu
    6fbb:	77 7c 77 72 72 78 7b 78 74 6f 72 78 79 77 74 71     w|wrrx{xtorxywtq
    6fcb:	74 79 76 72 6f 71 78 77 73 6f 6c 72 76 76 74 6e     tyvroqxwsolrvvtn
    6fdb:	6e 74 75 72 6e 6b 71 76 73 70 6a 6a 70 73 73 6f     nturnkqvspjjpsso
    6feb:	6a 6c 71 71 6d 69 6b 6f 71 6f 6a 67 69 6e 71 6e     jlqqmikoqojginqn
    6ffb:	68 68 6c 6e 6c 68 65 69 6e 6e 6b 64 63 69 6e 6e     hhlnlheinnkdcinn
    700b:	69 64 66 6a 6b 6a 63 64 69 6b 6b 66 5f 62 68 6d     idfjkjcdikkf_bhm
    701b:	6b 63 61 65 6a 6b 65 60 61 68 6c 69 60 5d 62 69     kcaejke`ahli`]bi
    702b:	6c 66 61 60 65 6a 68 62 5d 62 6a 6a 65 5d 5c 64     lfa`ejhb]bjje]\d
    703b:	6a 6a 64 5f 60 67 69 65 5f 5f 64 69 68 62 5d 5f     jjd_`gie__dihb]_
    704b:	65 6a 68 62 60 63 66 68 64 5f 61 66 69 67 61 5e     ejhb`cfhd_afiga^
    705b:	61 67 6b 68 62 60 64 69 68 64 60 63 69 69 66 61     agkhb`dihd`ciifa
    706b:	60 65 6a 6c 67 63 63 68 6b 6a 65 61 65 6c 6c 68     `ejlgcchkjeaellh
    707b:	62 61 68 6e 6e 68 64 65 6a 6e 6c 64 64 69 6f 6f     bahnnhdejnlddioo
    708b:	67 62 66 6c 71 6f 69 67 6a 6e 70 6b 66 68 6e 71     gbflqoigjnpkfhnq
    709b:	6f 68 66 6b 71 73 6f 6a 6a 6e 72 71 6c 69 6c 72     ohfkqsojjnrqlilr
    70ab:	73 6f 6a 69 6e 74 74 70 6c 6d 72 75 73 6f 6b 6f     sojinttplmrusoko
    70bb:	76 76 71 6b 6b 73 78 76 73 6f 6f 75 77 75 71 6e     vvqkksxvsoouwuqn
    70cb:	73 79 78 73 6e 6f 76 7b 79 75 72 73 78 7b 79 73     syxsnov{yursx{ys
    70db:	71 76 7c 7b 75 72 73 79 7d 7b 78 76 77 7c 7e 7b     qv|{ursy}{xvw|~{
    70eb:	76 75 7a 7f 7e 78 75 78 7d 80 7e 7b 7a 7c 7f 80     vuz.~xux}.~{z|..
    70fb:	7d 79 79 7f 82 80 7b 79 7c 80 83 81 7f 7e 7f 82     }yy...{y|....~..
    710b:	83 7f 7c 7f 84 85 81 7d 7d 80 85 86 83 81 81 84     ..|....}}.......
    711b:	87 85 81 7f 82 88 88 84 80 80 84 88 89 87 84 84     ................
    712b:	87 89 88 84 83 87 8a 89 86 83 84 88 8b 8b 89 87     ................
    713b:	88 8a 8b 89 86 87 8b 8c 8b 87 86 88 8b 8d 8d 8b     ................
    714b:	8a 8a 8d 8d 8b 88 89 8d 8e 8c 89 88 8a 8d 8f 8e     ................
    715b:	8c 8b 8d 8f 8f 8c 89 8a 8f 90 8e 8a 89 8b 8f 91     ................
    716b:	90 8e 8c 8d 91 90 8d 8a 8c 91 92 8e 8a 8a 8c 91     ................
    717b:	93 90 8e 8d 8f 93 92 8e 8b 8b 92 94 90 8c 8a 8d     ................
    718b:	92 94 91 8f 8d 8f 94 92 8e 8b 8c 93 94 90 8c 8b     ................
    719b:	8e 92 94 91 8f 8d 90 95 93 90 8c 8c 91 95 92 8f     ................
    71ab:	8b 8c 91 93 93 90 8e 8f 93 94 91 8e 8c 8f 94 93     ................
    71bb:	90 8c 8c 8f 93 94 91 8f 8f 91 94 92 90 8d 8d 91     ................
    71cb:	94 92 8e 8b 8d 90 93 93 90 8f 8f 93 94 91 8e 8c     ................
    71db:	8e 93 94 90 8c 8b 8e 91 92 91 8f 8e 8f 93 93 90     ................
    71eb:	8d 8c 8f 93 91 8d 8b 8b 8f 90 91 90 8e 8d 8f 91     ................
    71fb:	90 8e 8c 8d 8f 90 8f 8c 8a 8b 8e 8f 90 8f 8d 8d     ................
    720b:	8e 90 8f 8e 8c 8c 8c 8e 8e 8c 8a 89 8c 8e 8e 8d     ................
    721b:	8c 8b 8b 8e 8e 8e 8d 8a 8a 8b 8d 8b 89 89 8a 8c     ................
    722b:	8c 8c 8b 8a 8a 8b 8d 8d 8d 8c 89 87 88 8b 8b 89     ................
    723b:	87 88 8a 8b 8b 89 89 89 8a 8c 8d 8c 89 86 86 8a     ................
    724b:	8b 89 88 86 87 89 8a 8b 8a 88 87 8a 8c 8c 8b 86     ................
    725b:	85 87 89 8a 88 85 84 87 89 8b 8a 88 86 87 8a 8b     ................
    726b:	8b 89 85 85 87 89 87 86 84 85 88 88 8a 89 87 85     ................
    727b:	86 89 8b 8c 88 85 83 84 88 88 87 84 84 86 87 89     ................
    728b:	88 85 85 86 88 8b 8c 88 83 83 83 86 88 86 84 83     ................
    729b:	85 86 88 88 85 83 85 86 8a 8c 88 83 82 83 83 87     ................
    72ab:	87 83 82 83 85 87 87 84 83 84 85 87 8a 88 85 83     ................
    72bb:	83 83 83 85 83 83 83 83 84 84 85 84 83 83 85 86     ................
    72cb:	88 87 85 82 82 81 82 84 83 83 82 83 83 83 84 83     ................
    72db:	83 84 85 85 87 86 83 82 81 80 81 84 83 82 82 81     ................
    72eb:	82 83 84 83 84 84 83 85 86 85 84 82 81 80 80 83     ................
    72fb:	83 83 81 81 81 82 84 84 83 82 82 84 86 86 84 81     ................
    730b:	80 80 80 82 83 82 80 81 82 82 84 84 83 81 82 84     ................
    731b:	85 86 85 81 80 80 80 82 83 82 81 81 82 82 83 83     ................
    732b:	82 82 83 83 84 86 85 82 80 7f 7e 80 83 82 81 81     ..........~.....
    733b:	81 81 82 83 82 81 83 83 83 85 86 84 81 80 7f 7e     ...............~
    734b:	81 84 82 82 80 80 80 82 84 83 82 82 83 84 85 86     ................
    735b:	83 80 80 7f 81 81 82 82 82 7f 7f 81 82 84 84 81     ................
    736b:	80 82 84 84 84 85 82 7f 80 81 81 80 80 81 80 81     ................
    737b:	80 80 81 82 82 81 82 82 82 82 83 83 81 80 80 81     ................
    738b:	81 7f 7f 80 7f 7f 80 80 80 80 82 81 7f 80 81 82     ................
    739b:	82 82 81 7f 7f 7f 80 80 7d 7d 7e 7e 7f 7f 80 7e     ........}}~~...~
    73ab:	7f 80 7f 7f 7f 80 80 7f 7f 80 7f 7f 7f 7e 7e 7c     .............~~|
    73bb:	7b 7d 7e 7e 7f 7e 7d 7d 7e 7e 7e 7e 7f 7e 7e 7d     {}~~.~}}~~~~.~~}
    73cb:	7e 7f 7f 7e 7d 7d 7d 7a 7a 7d 7e 7d 7c 7c 7c 7d     ~..~}}}zz}~}|||}
    73db:	7d 7c 7d 7e 7e 7d 7c 7d 7e 7e 7e 7f 7e 7d 7c 7b     }|}~~}|}~~~.~}|{
    73eb:	7a 7b 7d 7d 7c 7c 7b 7b 7b 7d 7d 7d 7d 7e 7d 7d     z{}}||{{{}}}}~}}
    73fb:	7d 7d 7e 7e 7e 7e 7d 7d 7c 7c 7b 7a 7d 7d 7c 7d     }}~~~~}}||{z}}|}
    740b:	7c 7b 7c 7e 7e 7e 7e 7d 7d 7e 7e 7d 7d 7e 7e 7e     |{|~~~~}}~~}}~~~
    741b:	7e 7e 7d 7d 7d 7a 7c 7e 7d 7d 7d 7d 7e 7f 7f 7f     ~~}}}z|~}}}}~...
    742b:	7f 7e 7d 7e 7e 7e 7e 7f 80 7f 7f 7e 7e 7e 7e 7d     .~}~~~~....~~~~}
    743b:	7c 7d 7e 7e 7e 7e 7e 7e 7f 80 7f 7f 7f 7f 7e 7e     |}~~~~~~......~~
    744b:	7f 7f 7f 7f 7f 7f 7f 7e 7f 7f 7f 7d 7c 7e 7e 7f     .......~...}|~~.
    745b:	7e 7e 7e 7f 80 80 7f 7e 7f 7e 7d 7e 7f 80 80 7f     ~~~....~.~}~....
    746b:	7f 7f 7f 7e 7f 7f 7d 7c 7d 7e 7e 7e 7e 7e 7e 80     ...~..}|}~~~~~~.
    747b:	80                                                  .

0000747c <__ctors_end>:
    747c:	11 24       	eor	r1, r1
    747e:	1f be       	out	0x3f, r1	; 63
    7480:	cf ef       	ldi	r28, 0xFF	; 255
    7482:	d8 e0       	ldi	r29, 0x08	; 8
    7484:	de bf       	out	0x3e, r29	; 62
    7486:	cd bf       	out	0x3d, r28	; 61

00007488 <__do_clear_bss>:
    7488:	21 e0       	ldi	r18, 0x01	; 1
    748a:	a0 e0       	ldi	r26, 0x00	; 0
    748c:	b1 e0       	ldi	r27, 0x01	; 1
    748e:	01 c0       	rjmp	.+2      	; 0x7492 <.do_clear_bss_start>

00007490 <.do_clear_bss_loop>:
    7490:	1d 92       	st	X+, r1

00007492 <.do_clear_bss_start>:
    7492:	a4 30       	cpi	r26, 0x04	; 4
    7494:	b2 07       	cpc	r27, r18
    7496:	e1 f7       	brne	.-8      	; 0x7490 <.do_clear_bss_loop>
    7498:	0e 94 87 3a 	call	0x750e	; 0x750e <main>
    749c:	0c 94 29 3b 	jmp	0x7652	; 0x7652 <_exit>

000074a0 <__bad_interrupt>:
    74a0:	0c 94 00 00 	jmp	0	; 0x0 <__vectors>

000074a4 <setupBUTonPORTB>:
int count = 0;


void setupBUTonPORTB(unsigned char n)  //sets PORTB.n to be an input Button connected to ground
{
	DDRB &= ~(1<<n);
    74a4:	44 b1       	in	r20, 0x04	; 4
    74a6:	21 e0       	ldi	r18, 0x01	; 1
    74a8:	30 e0       	ldi	r19, 0x00	; 0
    74aa:	b9 01       	movw	r22, r18
    74ac:	02 c0       	rjmp	.+4      	; 0x74b2 <setupBUTonPORTB+0xe>
    74ae:	66 0f       	add	r22, r22
    74b0:	77 1f       	adc	r23, r23
    74b2:	8a 95       	dec	r24
    74b4:	e2 f7       	brpl	.-8      	; 0x74ae <setupBUTonPORTB+0xa>
    74b6:	cb 01       	movw	r24, r22
    74b8:	96 2f       	mov	r25, r22
    74ba:	90 95       	com	r25
    74bc:	49 23       	and	r20, r25
    74be:	44 b9       	out	0x04, r20	; 4
	PORTB |= (1<<n);
    74c0:	95 b1       	in	r25, 0x05	; 5
    74c2:	89 2b       	or	r24, r25
    74c4:	85 b9       	out	0x05, r24	; 5
    74c6:	08 95       	ret

000074c8 <getBUT>:
}

unsigned char getBUT(unsigned char n)  //  gets the immediate status of Button n....true for being pressed
{
	if (0 == (PINB & (1<<n)))
    74c8:	23 b1       	in	r18, 0x03	; 3
    74ca:	30 e0       	ldi	r19, 0x00	; 0
    74cc:	02 c0       	rjmp	.+4      	; 0x74d2 <getBUT+0xa>
    74ce:	35 95       	asr	r19
    74d0:	27 95       	ror	r18
    74d2:	8a 95       	dec	r24
    74d4:	e2 f7       	brpl	.-8      	; 0x74ce <getBUT+0x6>
    74d6:	20 fd       	sbrc	r18, 0
    74d8:	02 c0       	rjmp	.+4      	; 0x74de <getBUT+0x16>
	{
		return 1;
    74da:	81 e0       	ldi	r24, 0x01	; 1
    74dc:	08 95       	ret
	}
	else
	{
		return 0;
    74de:	80 e0       	ldi	r24, 0x00	; 0
	}
}
    74e0:	08 95       	ret

000074e2 <Timersetup>:
	
	sei();
	
	TCCR1B |= (1 << CS12); // set prescaler to 256*/
	
		TCCR1A |= (1<<COM1A1) | (1<<WGM10);
    74e2:	e0 e8       	ldi	r30, 0x80	; 128
    74e4:	f0 e0       	ldi	r31, 0x00	; 0
    74e6:	80 81       	ld	r24, Z
    74e8:	81 68       	ori	r24, 0x81	; 129
    74ea:	80 83       	st	Z, r24
		TCCR1B |= (1<<CS10) | (1<<WGM12);
    74ec:	e1 e8       	ldi	r30, 0x81	; 129
    74ee:	f0 e0       	ldi	r31, 0x00	; 0
    74f0:	80 81       	ld	r24, Z
    74f2:	89 60       	ori	r24, 0x09	; 9
    74f4:	80 83       	st	Z, r24
		// set up timer with prescaler = 256
		TCCR0B |= (1 << CS02);
    74f6:	85 b5       	in	r24, 0x25	; 37
    74f8:	84 60       	ori	r24, 0x04	; 4
    74fa:	85 bd       	out	0x25, r24	; 37
		// initialize counter
		TCNT0 = 247;
    74fc:	87 ef       	ldi	r24, 0xF7	; 247
    74fe:	86 bd       	out	0x26, r24	; 38
		// enable overflow interrupt
		TIMSK0 |= (1 << TOIE0);   //error in original code TIMSK was chosen
    7500:	ee e6       	ldi	r30, 0x6E	; 110
    7502:	f0 e0       	ldi	r31, 0x00	; 0
    7504:	80 81       	ld	r24, Z
    7506:	81 60       	ori	r24, 0x01	; 1
    7508:	80 83       	st	Z, r24
		// enable global interrupts
		sei();
    750a:	78 94       	sei
    750c:	08 95       	ret

0000750e <main>:



int main(void)
{
	DDRD = 0b11111111;
    750e:	8f ef       	ldi	r24, 0xFF	; 255
    7510:	8a b9       	out	0x0a, r24	; 10
	
	
	setupBUTonPORTB(2);
    7512:	82 e0       	ldi	r24, 0x02	; 2
    7514:	0e 94 52 3a 	call	0x74a4	; 0x74a4 <setupBUTonPORTB>
	setupBUTonPORTB(3);
    7518:	83 e0       	ldi	r24, 0x03	; 3
    751a:	0e 94 52 3a 	call	0x74a4	; 0x74a4 <setupBUTonPORTB>
	setupBUTonPORTB(4);
    751e:	84 e0       	ldi	r24, 0x04	; 4
    7520:	0e 94 52 3a 	call	0x74a4	; 0x74a4 <setupBUTonPORTB>
	Timersetup();
    7524:	0e 94 71 3a 	call	0x74e2	; 0x74e2 <Timersetup>
	
	while (1)
	{
			if(getBUT(2))
    7528:	82 e0       	ldi	r24, 0x02	; 2
    752a:	0e 94 64 3a 	call	0x74c8	; 0x74c8 <getBUT>
    752e:	88 23       	and	r24, r24
    7530:	31 f0       	breq	.+12     	; 0x753e <main+0x30>
			{
				option = 1;
    7532:	81 e0       	ldi	r24, 0x01	; 1
    7534:	90 e0       	ldi	r25, 0x00	; 0
    7536:	90 93 01 01 	sts	0x0101, r25	; 0x800101 <__DATA_REGION_ORIGIN__+0x1>
    753a:	80 93 00 01 	sts	0x0100, r24	; 0x800100 <__DATA_REGION_ORIGIN__>
			}
			if(getBUT(3))
    753e:	83 e0       	ldi	r24, 0x03	; 3
    7540:	0e 94 64 3a 	call	0x74c8	; 0x74c8 <getBUT>
    7544:	88 23       	and	r24, r24
    7546:	31 f0       	breq	.+12     	; 0x7554 <main+0x46>
			{
				option = 2;
    7548:	82 e0       	ldi	r24, 0x02	; 2
    754a:	90 e0       	ldi	r25, 0x00	; 0
    754c:	90 93 01 01 	sts	0x0101, r25	; 0x800101 <__DATA_REGION_ORIGIN__+0x1>
    7550:	80 93 00 01 	sts	0x0100, r24	; 0x800100 <__DATA_REGION_ORIGIN__>
			}
			if(getBUT(4))
    7554:	84 e0       	ldi	r24, 0x04	; 4
    7556:	0e 94 64 3a 	call	0x74c8	; 0x74c8 <getBUT>
    755a:	88 23       	and	r24, r24
    755c:	29 f3       	breq	.-54     	; 0x7528 <main+0x1a>
			{
				option = 3;
    755e:	83 e0       	ldi	r24, 0x03	; 3
    7560:	90 e0       	ldi	r25, 0x00	; 0
    7562:	90 93 01 01 	sts	0x0101, r25	; 0x800101 <__DATA_REGION_ORIGIN__+0x1>
    7566:	80 93 00 01 	sts	0x0100, r24	; 0x800100 <__DATA_REGION_ORIGIN__>
    756a:	de cf       	rjmp	.-68     	; 0x7528 <main+0x1a>

0000756c <__vector_16>:
			}
	}
}

ISR(TIMER0_OVF_vect)
{
    756c:	1f 92       	push	r1
    756e:	0f 92       	push	r0
    7570:	0f b6       	in	r0, 0x3f	; 63
    7572:	0f 92       	push	r0
    7574:	11 24       	eor	r1, r1
    7576:	2f 93       	push	r18
    7578:	8f 93       	push	r24
    757a:	9f 93       	push	r25
    757c:	ef 93       	push	r30
    757e:	ff 93       	push	r31
	TCNT0 = 247;
    7580:	87 ef       	ldi	r24, 0xF7	; 247
    7582:	86 bd       	out	0x26, r24	; 38
	if (option == 1)
    7584:	80 91 00 01 	lds	r24, 0x0100	; 0x800100 <__DATA_REGION_ORIGIN__>
    7588:	90 91 01 01 	lds	r25, 0x0101	; 0x800101 <__DATA_REGION_ORIGIN__+0x1>
    758c:	01 97       	sbiw	r24, 0x01	; 1
    758e:	c9 f4       	brne	.+50     	; 0x75c2 <__vector_16+0x56>
	{
		PORTD = pgm_read_byte(&(girl_scream[count++]));
    7590:	e0 91 02 01 	lds	r30, 0x0102	; 0x800102 <count>
    7594:	f0 91 03 01 	lds	r31, 0x0103	; 0x800103 <count+0x1>
    7598:	cf 01       	movw	r24, r30
    759a:	01 96       	adiw	r24, 0x01	; 1
    759c:	90 93 03 01 	sts	0x0103, r25	; 0x800103 <count+0x1>
    75a0:	80 93 02 01 	sts	0x0102, r24	; 0x800102 <count>
    75a4:	ee 53       	subi	r30, 0x3E	; 62
    75a6:	f2 4d       	sbci	r31, 0xD2	; 210
    75a8:	e4 91       	lpm	r30, Z
    75aa:	eb b9       	out	0x0b, r30	; 11
		if (count > 9289)
    75ac:	80 91 02 01 	lds	r24, 0x0102	; 0x800102 <count>
    75b0:	90 91 03 01 	lds	r25, 0x0103	; 0x800103 <count+0x1>
    75b4:	8a 34       	cpi	r24, 0x4A	; 74
    75b6:	94 42       	sbci	r25, 0x24	; 36
    75b8:	24 f0       	brlt	.+8      	; 0x75c2 <__vector_16+0x56>
		{
			count = 0;
    75ba:	10 92 03 01 	sts	0x0103, r1	; 0x800103 <count+0x1>
    75be:	10 92 02 01 	sts	0x0102, r1	; 0x800102 <count>
		}
	}
	if (option == 2)
    75c2:	80 91 00 01 	lds	r24, 0x0100	; 0x800100 <__DATA_REGION_ORIGIN__>
    75c6:	90 91 01 01 	lds	r25, 0x0101	; 0x800101 <__DATA_REGION_ORIGIN__+0x1>
    75ca:	02 97       	sbiw	r24, 0x02	; 2
    75cc:	c9 f4       	brne	.+50     	; 0x7600 <__vector_16+0x94>
	{
		PORTD = pgm_read_byte(&(Cat_scream[count++]));
    75ce:	e0 91 02 01 	lds	r30, 0x0102	; 0x800102 <count>
    75d2:	f0 91 03 01 	lds	r31, 0x0103	; 0x800103 <count+0x1>
    75d6:	cf 01       	movw	r24, r30
    75d8:	01 96       	adiw	r24, 0x01	; 1
    75da:	90 93 03 01 	sts	0x0103, r25	; 0x800103 <count+0x1>
    75de:	80 93 02 01 	sts	0x0102, r24	; 0x800102 <count>
    75e2:	e5 5f       	subi	r30, 0xF5	; 245
    75e4:	fd 4a       	sbci	r31, 0xAD	; 173
    75e6:	e4 91       	lpm	r30, Z
    75e8:	eb b9       	out	0x0b, r30	; 11
		if (count > 8817)
    75ea:	80 91 02 01 	lds	r24, 0x0102	; 0x800102 <count>
    75ee:	90 91 03 01 	lds	r25, 0x0103	; 0x800103 <count+0x1>
    75f2:	82 37       	cpi	r24, 0x72	; 114
    75f4:	92 42       	sbci	r25, 0x22	; 34
    75f6:	24 f0       	brlt	.+8      	; 0x7600 <__vector_16+0x94>
		{
			count = 0;
    75f8:	10 92 03 01 	sts	0x0103, r1	; 0x800103 <count+0x1>
    75fc:	10 92 02 01 	sts	0x0102, r1	; 0x800102 <count>
		}
	}
	if (option == 3)
    7600:	80 91 00 01 	lds	r24, 0x0100	; 0x800100 <__DATA_REGION_ORIGIN__>
    7604:	90 91 01 01 	lds	r25, 0x0101	; 0x800101 <__DATA_REGION_ORIGIN__+0x1>
    7608:	03 97       	sbiw	r24, 0x03	; 3
    760a:	c9 f4       	brne	.+50     	; 0x763e <__vector_16+0xd2>
	{
		PORTD = pgm_read_byte(&(monster_scream[count++]));
    760c:	e0 91 02 01 	lds	r30, 0x0102	; 0x800102 <count>
    7610:	f0 91 03 01 	lds	r31, 0x0103	; 0x800103 <count+0x1>
    7614:	cf 01       	movw	r24, r30
    7616:	01 96       	adiw	r24, 0x01	; 1
    7618:	90 93 03 01 	sts	0x0103, r25	; 0x800103 <count+0x1>
    761c:	80 93 02 01 	sts	0x0102, r24	; 0x800102 <count>
    7620:	e8 59       	subi	r30, 0x98	; 152
    7622:	ff 4f       	sbci	r31, 0xFF	; 255
    7624:	e4 91       	lpm	r30, Z
    7626:	eb b9       	out	0x0b, r30	; 11
		if (count > 11610)
    7628:	80 91 02 01 	lds	r24, 0x0102	; 0x800102 <count>
    762c:	90 91 03 01 	lds	r25, 0x0103	; 0x800103 <count+0x1>
    7630:	8b 35       	cpi	r24, 0x5B	; 91
    7632:	9d 42       	sbci	r25, 0x2D	; 45
    7634:	24 f0       	brlt	.+8      	; 0x763e <__vector_16+0xd2>
		{
			count = 0;
    7636:	10 92 03 01 	sts	0x0103, r1	; 0x800103 <count+0x1>
    763a:	10 92 02 01 	sts	0x0102, r1	; 0x800102 <count>
		}
	}

    763e:	ff 91       	pop	r31
    7640:	ef 91       	pop	r30
    7642:	9f 91       	pop	r25
    7644:	8f 91       	pop	r24
    7646:	2f 91       	pop	r18
    7648:	0f 90       	pop	r0
    764a:	0f be       	out	0x3f, r0	; 63
    764c:	0f 90       	pop	r0
    764e:	1f 90       	pop	r1
    7650:	18 95       	reti

00007652 <_exit>:
    7652:	f8 94       	cli

00007654 <__stop_program>:
    7654:	ff cf       	rjmp	.-2      	; 0x7654 <__stop_program>
